 HexEditor

 Timestamp is 4a0c5412 (Thu May 14 19:25:38 2009)

 Preferred load address is 10000000

 Start         Length     Name                   Class
 0001:00000000 0002f6e6H .text                   CODE
 0001:0002f6f0 000006e7H .text$x                 CODE
 0001:0002fde0 000001edH .text$yc                CODE
 0001:0002ffd0 000000c9H .text$yd                CODE
 0002:00000000 00000324H .idata$5                DATA
 0002:00000330 00003df1H .rdata                  DATA
 0002:00004124 0000005dH .rdata$debug            DATA
 0002:00004184 000001b0H .rdata$r                DATA
 0002:00004334 00000004H .rtc$IAA                DATA
 0002:00004338 00000004H .rtc$IZZ                DATA
 0002:0000433c 00000004H .rtc$TAA                DATA
 0002:00004340 00000004H .rtc$TZZ                DATA
 0002:00004344 00000f24H .xdata$x                DATA
 0002:00005268 0000008cH .idata$2                DATA
 0002:000052f4 00000014H .idata$3                DATA
 0002:00005308 00000324H .idata$4                DATA
 0002:0000562c 00000d3eH .idata$6                DATA
 0002:00006370 000000b1H .edata                  DATA
 0003:00000000 00000004H .CRT$XCA                DATA
 0003:00000004 00000004H .CRT$XCAA               DATA
 0003:00000008 00000034H .CRT$XCU                DATA
 0003:0000003c 00000004H .CRT$XCZ                DATA
 0003:00000040 00000004H .CRT$XIA                DATA
 0003:00000044 0000000cH .CRT$XIC                DATA
 0003:00000050 00000004H .CRT$XIY                DATA
 0003:00000054 00000004H .CRT$XIZ                DATA
 0003:00000058 00000004H .CRT$XPA                DATA
 0003:0000005c 00000004H .CRT$XPX                DATA
 0003:00000060 00000004H .CRT$XPZ                DATA
 0003:00000064 00000004H .CRT$XTA                DATA
 0003:00000068 00000004H .CRT$XTB                DATA
 0003:0000006c 00000004H .CRT$XTZ                DATA
 0003:00000070 00000ec0H .data                   DATA
 0003:00000f40 00004740H .bss                    DATA
 0004:00000000 00000268H .rsrc$01                DATA
 0004:00000270 000027f8H .rsrc$02                DATA

  Address         Publics by Value              Rva+Base     Lib:Object

 0000:00000000       __except_list              00000000     <absolute>
 0001:00000000       ?init@ColorCombo@@UAEXPAUHINSTANCE__@@PAUHWND__@@1@Z 10001000 f   ColorCombo.obj
 0001:00000080       ?init@Window@@UAEXPAUHINSTANCE__@@PAUHWND__@@@Z 10001080 f i ColorCombo.obj
 0001:000000a0       ?wndDefaultProc@ColorCombo@@CGJPAUHWND__@@IIJ@Z 100010a0 f i ColorCombo.obj
 0001:000000d0       ?runProc@ColorCombo@@AAEJPAUHWND__@@IIJ@Z 100010d0 f   ColorCombo.obj
 0001:00000300       ??0ColorPopup@@QAE@K@Z     10001300 f i ColorCombo.obj
 0001:00000340       ??0Window@@QAE@XZ          10001340 f i ColorCombo.obj
 0001:00000380       ?reSizeTo@Window@@UAEXAAUtagRECT@@@Z 10001380 f i ColorCombo.obj
 0001:000003d0       ?reSizeToWH@Window@@UAEXAAUtagRECT@@@Z 100013d0 f i ColorCombo.obj
 0001:00000420       ?redraw@Window@@UBEXXZ     10001420 f i ColorCombo.obj
 0001:00000450       ?getClientRect@Window@@UBEXAAUtagRECT@@@Z 10001450 f i ColorCombo.obj
 0001:00000470       ?getWindowRect@Window@@UBEXAAUtagRECT@@@Z 10001470 f i ColorCombo.obj
 0001:00000490       ?getWidth@Window@@UBEHXZ   10001490 f i ColorCombo.obj
 0001:000004c0       ?getHeight@Window@@UBEHXZ  100014c0 f i ColorCombo.obj
 0001:00000500       ?isVisible@Window@@UBE_NXZ 10001500 f i ColorCombo.obj
 0001:00000520       ??_GWindow@@UAEPAXI@Z      10001520 f i ColorCombo.obj
 0001:00000520       ??_EWindow@@UAEPAXI@Z      10001520 f i ColorCombo.obj
 0001:00000550       ??1Window@@UAE@XZ          10001550 f i ColorCombo.obj
 0001:00000570       ?init@ColorPopup@@QAEXPAUHINSTANCE__@@PAUHWND__@@1@Z 10001570 f i ColorCombo.obj
 0001:000005a0       ?doDialog@ColorPopup@@QAEXUtagPOINT@@@Z 100015a0 f i ColorCombo.obj
 0001:00000600       ??_GColorPopup@@UAEPAXI@Z  10001600 f i ColorCombo.obj
 0001:00000600       ??_EColorPopup@@UAEPAXI@Z  10001600 f i ColorCombo.obj
 0001:00000630       ??1ColorPopup@@UAE@XZ      10001630 f i ColorCombo.obj
 0001:00000650       ?setColor@ColorCombo@@QAEXK@Z 10001650 f i ColorCombo.obj
 0001:00000680       ?DrawColor@ColorCombo@@AAEXPAUHDC__@@@Z 10001680 f   ColorCombo.obj
 0001:00000750       ?create@ColorPopup@@QAEXH@Z 10001750 f   ColorPopup.obj
 0001:000007e0       ?dlgProc@ColorPopup@@CGHPAUHWND__@@IIJ@Z 100017e0 f   ColorPopup.obj
 0001:000008d0       ?run_dlgProc@ColorPopup@@AAGHIIJ@Z 100018d0 f   ColorPopup.obj
 0001:00000e50       ?doDialogColumn@ColumnDlg@@QAEII@Z 10001e50 f   ColumnDialog.obj
 0001:00000ea0       ?doDialogAddWidth@ColumnDlg@@QAEII@Z 10001ea0 f   ColumnDialog.obj
 0001:00000ef0       ?run_dlgProc@ColumnDlg@@MAGHPAUHWND__@@IIJ@Z 10001ef0 f   ColumnDialog.obj
 0001:00001130       ?doDialog@CompareDlg@@QAEIPAVHexEdit@@0I@Z 10002130 f   CompareDialog.obj
 0001:00001180       ?run_dlgProc@CompareDlg@@MAGHPAUHWND__@@IIJ@Z 10002180 f   CompareDialog.obj
 0001:00001700       ?SetHexProp@HexEdit@@QAEXUtHexProp@@@Z 10002700 f i CompareDialog.obj
 0001:000017f0       ?GetHexProp@HexEdit@@QAE?AUtHexProp@@XZ 100027f0 f i CompareDialog.obj
 0001:000018d0       ??1tHexProp@@QAE@XZ        100028d0 f i CompareDialog.obj
 0001:000018f0       ??4tHexProp@@QAEAAU0@ABU0@@Z 100028f0 f i CompareDialog.obj
 0001:00001ac0       ??0tHexProp@@QAE@ABU0@@Z   10002ac0 f i CompareDialog.obj
 0001:00001c70       ??0tHexProp@@QAE@XZ        10002c70 f i CompareDialog.obj
 0001:00001c90       ??0?$vector@UtBkMk@@V?$allocator@UtBkMk@@@std@@@std@@QAE@XZ 10002c90 f i CompareDialog.obj
 0001:00001cc0       ??0?$vector@UtBkMk@@V?$allocator@UtBkMk@@@std@@@std@@QAE@ABV01@@Z 10002cc0 f i CompareDialog.obj
 0001:00001da0       ??1?$vector@UtBkMk@@V?$allocator@UtBkMk@@@std@@@std@@QAE@XZ 10002da0 f i CompareDialog.obj
 0001:00001da0       ?clear@?$vector@UtBkMk@@V?$allocator@UtBkMk@@@std@@@std@@QAEXXZ 10002da0 f i CompareDialog.obj
 0001:00001dc0       ??4?$vector@UtBkMk@@V?$allocator@UtBkMk@@@std@@@std@@QAEAAV01@ABV01@@Z 10002dc0 f i CompareDialog.obj
 0001:00001f80       ?capacity@?$vector@UtBkMk@@V?$allocator@UtBkMk@@@std@@@std@@QBEIXZ 10002f80 f i CompareDialog.obj
 0001:00001fc0       ?end@?$vector@TtEncComboInfo@@V?$allocator@TtEncComboInfo@@@std@@@std@@QAE?AV?$_Ptrit@TtEncComboInfo@@HPAT1@AAT1@PAT1@AAT1@@2@XZ 10002fc0 f i MultiTypeCombo.obj
 0001:00001fc0       ?end@?$vector@UtMenu@@V?$allocator@UtMenu@@@std@@@std@@QAE?AV?$_Ptrit@UtMenu@@HPAU1@AAU1@PAU1@AAU1@@2@XZ 10002fc0 f i Hex.obj
 0001:00001fc0       ?end@?$vector@UtHexProp@@V?$allocator@UtHexProp@@@std@@@std@@QAE?AV?$_Ptrit@UtHexProp@@HPAU1@AAU1@PAU1@AAU1@@2@XZ 10002fc0 f i HEXDialog.obj
 0001:00001fc0       ?end@?$vector@UtBkMk@@V?$allocator@UtBkMk@@@std@@@std@@QBE?AV?$_Ptrit@UtBkMk@@HPBU1@ABU1@PAU1@AAU1@@2@XZ 10002fc0 f i CompareDialog.obj
 0001:00001fc0       ?end@?$vector@UtBkMk@@V?$allocator@UtBkMk@@@std@@@std@@QAE?AV?$_Ptrit@UtBkMk@@HPAU1@AAU1@PAU1@AAU1@@2@XZ 10002fc0 f i HEXDialog.obj
 0001:00001fc0       ?end@?$vector@V?$basic_string@GU?$char_traits@G@std@@V?$allocator@G@2@@std@@V?$allocator@V?$basic_string@GU?$char_traits@G@std@@V?$allocator@G@2@@std@@@2@@std@@QAE?AV?$_Ptrit@V?$basic_string@GU?$char_traits@G@std@@V?$allocator@G@2@@std@@HPAV12@AAV12@PAV12@AAV12@@2@XZ 10002fc0 f i Hex.obj
 0001:00001fc0       ?end@?$vector@UtHexProp@@V?$allocator@UtHexProp@@@std@@@std@@QBE?AV?$_Ptrit@UtHexProp@@HPBU1@ABU1@PAU1@AAU1@@2@XZ 10002fc0 f i HEXDialog.obj
 0001:00001fc0       ?end@?$vector@UtMenu@@V?$allocator@UtMenu@@@std@@@std@@QBE?AV?$_Ptrit@UtMenu@@HPBU1@ABU1@PAU1@AAU1@@2@XZ 10002fc0 f i Hex.obj
 0001:00001fe0       ?size@?$vector@UtBkMk@@V?$allocator@UtBkMk@@@std@@@std@@QBEIXZ 10002fe0 f i CompareDialog.obj
 0001:00002020       ?_Buy@?$vector@UtBkMk@@V?$allocator@UtBkMk@@@std@@@std@@IAE_NI@Z 10003020 f i CompareDialog.obj
 0001:000020a0       ?_Destroy@?$vector@UtBkMk@@V?$allocator@UtBkMk@@@std@@@std@@IAEXPAUtBkMk@@0@Z 100030a0 f i CompareDialog.obj
 0001:000020d0       ?_Tidy@?$vector@UtBkMk@@V?$allocator@UtBkMk@@@std@@@std@@IAEXXZ 100030d0 f i CompareDialog.obj
 0001:00002140       ??H?$_Ptrit@UtBkMk@@HPBU1@ABU1@PAU1@AAU1@@std@@QBE?AV01@H@Z 10003140 f i CompareDialog.obj
 0001:00002140       ??H?$_Ptrit@UtBkMk@@HPAU1@AAU1@PAU1@AAU1@@std@@QBE?AV01@H@Z 10003140 f i HEXDialog.obj
 0001:00002170       ?max_size@?$vector@UtBkMk@@V?$allocator@UtBkMk@@@std@@@std@@QBEIXZ 10003170 f i CompareDialog.obj
 0001:00002190       ?_Xlen@?$vector@UtBkMk@@V?$allocator@UtBkMk@@@std@@@std@@IBEXXZ 10003190 f i CompareDialog.obj
 0001:000021f0       ??0length_error@std@@QAE@ABV?$basic_string@DU?$char_traits@D@std@@V?$allocator@D@2@@1@@Z 100031f0 f i CompareDialog.obj
 0001:00002220       ??0logic_error@std@@QAE@ABV?$basic_string@DU?$char_traits@D@std@@V?$allocator@D@2@@1@@Z 10003220 f i CompareDialog.obj
 0001:00002280       ?what@logic_error@std@@UBEPBDXZ 10003280 f i CompareDialog.obj
 0001:000022a0       ??_Elogic_error@std@@UAEPAXI@Z 100032a0 f i CompareDialog.obj
 0001:000022a0       ??_Glogic_error@std@@UAEPAXI@Z 100032a0 f i CompareDialog.obj
 0001:000022d0       ??1logic_error@std@@UAE@XZ 100032d0 f i CompareDialog.obj
 0001:00002330       ??1length_error@std@@UAE@XZ 10003330 f i CompareDialog.obj
 0001:00002350       ??_Glength_error@std@@UAEPAXI@Z 10003350 f i CompareDialog.obj
 0001:00002350       ??_Elength_error@std@@UAEPAXI@Z 10003350 f i CompareDialog.obj
 0001:00002380       ??0length_error@std@@QAE@ABV01@@Z 10003380 f i CompareDialog.obj
 0001:000023b0       ??0logic_error@std@@QAE@ABV01@@Z 100033b0 f i CompareDialog.obj
 0001:00002420       ??0?$basic_string@DU?$char_traits@D@std@@V?$allocator@D@2@@std@@QAE@ABV01@@Z 10003420 f i CompareDialog.obj
 0001:00002470       ??0?$basic_string@DU?$char_traits@D@std@@V?$allocator@D@2@@std@@QAE@PBD@Z 10003470 f i CompareDialog.obj
 0001:000024b0       ??1?$basic_string@DU?$char_traits@D@std@@V?$allocator@D@2@@std@@QAE@XZ 100034b0 f i CompareDialog.obj
 0001:000024d0       ?c_str@?$basic_string@DU?$char_traits@D@std@@V?$allocator@D@2@@std@@QBEPBDXZ 100034d0 f i CompareDialog.obj
 0001:000024f0       ?assign@?$basic_string@DU?$char_traits@D@std@@V?$allocator@D@2@@std@@QAEAAV12@ABV12@II@Z 100034f0 f i CompareDialog.obj
 0001:000025b0       ?copy@?$char_traits@D@std@@SAPADPADPBDI@Z 100035b0 f i CompareDialog.obj
 0001:000025d0       ?assign@?$basic_string@DU?$char_traits@D@std@@V?$allocator@D@2@@std@@QAEAAV12@PBD@Z 100035d0 f i CompareDialog.obj
 0001:00002600       ?length@?$char_traits@D@std@@SAIPBD@Z 10003600 f i CompareDialog.obj
 0001:00002620       ?_Myptr@?$basic_string@DU?$char_traits@D@std@@V?$allocator@D@2@@std@@AAEPADXZ 10003620 f i CompareDialog.obj
 0001:00002620       ?_Myptr@?$basic_string@DU?$char_traits@D@std@@V?$allocator@D@2@@std@@ABEPBDXZ 10003620 f i CompareDialog.obj
 0001:00002650       ?_Tidy@?$basic_string@DU?$char_traits@D@std@@V?$allocator@D@2@@std@@AAEX_N@Z 10003650 f i CompareDialog.obj
 0001:000026b0       ?assign@?$basic_string@DU?$char_traits@D@std@@V?$allocator@D@2@@std@@QAEAAV12@PBDI@Z 100036b0 f i CompareDialog.obj
 0001:00002740       ?erase@?$basic_string@DU?$char_traits@D@std@@V?$allocator@D@2@@std@@QAEAAV12@II@Z 10003740 f i CompareDialog.obj
 0001:000027f0       ?move@?$char_traits@D@std@@SAPADPADPBDI@Z 100037f0 f i CompareDialog.obj
 0001:00002810       ?_Eos@?$basic_string@DU?$char_traits@D@std@@V?$allocator@D@2@@std@@AAEXI@Z 10003810 f i CompareDialog.obj
 0001:00002850       ?assign@?$char_traits@D@std@@SAXAADABD@Z 10003850 f i CompareDialog.obj
 0001:00002860       ?_Grow@?$basic_string@DU?$char_traits@D@std@@V?$allocator@D@2@@std@@AAE_NI_N@Z 10003860 f i CompareDialog.obj
 0001:00002900       ?allocate@?$allocator@UtBkMk@@@std@@QAEPAUtBkMk@@IPBX@Z 10003900 f i CompareDialog.obj
 0001:00002920       ?max_size@?$basic_string@DU?$char_traits@D@std@@V?$allocator@D@2@@std@@QBEIXZ 10003920 f i CompareDialog.obj
 0001:00002960       ?_Copy@?$basic_string@DU?$char_traits@D@std@@V?$allocator@D@2@@std@@AAEXII@Z 10003960 f i CompareDialog.obj
 0001:00002a70       ?_Inside@?$basic_string@DU?$char_traits@D@std@@V?$allocator@D@2@@std@@AAE_NPBD@Z 10003a70 f i CompareDialog.obj
 0001:00002ac0       ?max_size@?$allocator@UtBkMk@@@std@@QBEIXZ 10003ac0 f i CompareDialog.obj
 0001:00002af0       ?allocate@?$allocator@D@std@@QAEPADIPBX@Z 10003af0 f i CompareDialog.obj
 0001:00002b10       ?max_size@?$allocator@D@std@@QBEIXZ 10003b10 f i CompareDialog.obj
 0001:00002b40       ?_Ucopy@?$vector@UtBkMk@@V?$allocator@UtBkMk@@@std@@@std@@IAEPAUtBkMk@@V?$_Ptrit@UtBkMk@@HPBU1@ABU1@PAU1@AAU1@@2@0PAU3@@Z 10003b40 f i CompareDialog.obj
 0001:00002b70       ?copy@std@@YAPAUtBkMk@@V?$_Ptrit@UtBkMk@@HPBU1@ABU1@PAU1@AAU1@@1@0PAU2@@Z 10003b70 f i CompareDialog.obj
 0001:00002bb0       ?_Destroy_range@std@@YAXPAUtBkMk@@0AAV?$allocator@UtBkMk@@@1@@Z 10003bb0 f i CompareDialog.obj
 0001:00002bf0       ?_Allocate@std@@YAPAUtBkMk@@IPAU2@@Z 10003bf0 f i CompareDialog.obj
 0001:00002c10       ?_Allocate@std@@YAPADIPAD@Z 10003c10 f i CompareDialog.obj
 0001:00002c30       ?_Uninitialized_copy@std@@YAPAUtBkMk@@V?$_Ptrit@UtBkMk@@HPBU1@ABU1@PAU1@AAU1@@1@0PAU2@AAV?$allocator@UtBkMk@@@1@@Z 10003c30 f i CompareDialog.obj
 0001:00002c70       ?_Copy_opt@std@@YAPAUtBkMk@@V?$_Ptrit@UtBkMk@@HPBU1@ABU1@PAU1@AAU1@@1@0PAU2@U_Nonscalar_ptr_iterator_tag@1@@Z 10003c70 f i CompareDialog.obj
 0001:00002cc0       ?_Destroy_range@std@@YAXPAUtBkMk@@0AAV?$allocator@UtBkMk@@@1@U_Nonscalar_ptr_iterator_tag@1@@Z 10003cc0 f i CompareDialog.obj
 0001:00002cf0       ?destroy@?$allocator@TtEncComboInfo@@@std@@QAEXPATtEncComboInfo@@@Z 10003cf0 f i MultiTypeCombo.obj
 0001:00002cf0       ?destroy@?$allocator@UtBkMk@@@std@@QAEXPAUtBkMk@@@Z 10003cf0 f i CompareDialog.obj
 0001:00002d10       ??E?$_Ptrit@UtBkMk@@HPAU1@AAU1@PAU1@AAU1@@std@@QAEAAV01@XZ 10003d10 f i HEXDialog.obj
 0001:00002d10       ??E?$_Ptrit@UtBkMk@@HPBU1@ABU1@PAU1@AAU1@@std@@QAEAAV01@XZ 10003d10 f i CompareDialog.obj
 0001:00002d30       ?_Uninit_copy@std@@YAPAUtBkMk@@V?$_Ptrit@UtBkMk@@HPBU1@ABU1@PAU1@AAU1@@1@0PAU2@AAV?$allocator@UtBkMk@@@1@U_Nonscalar_ptr_iterator_tag@1@@Z 10003d30 f i CompareDialog.obj
 0001:00002e00       ?construct@?$allocator@UtBkMk@@@std@@QAEXPAUtBkMk@@ABU3@@Z 10003e00 f i CompareDialog.obj
 0001:00002e20       ?_Construct@std@@YAXPAUtBkMk@@ABU2@@Z 10003e20 f i CompareDialog.obj
 0001:00002e60       ??2@YAPAXIPAX@Z            10003e60 f i CompareDialog.obj
 0001:00002e70       ?doDialog@FindReplaceDlg@@QAEXPAUHWND__@@H@Z 10003e70 f   FindReplaceDialog.obj
 0001:00002f60       ?display@Window@@UBEX_N@Z  10003f60 f   ColorCombo.obj
 0001:00002f60       ?display@FindReplaceDlg@@QAEX_N@Z 10003f60 f   FindReplaceDialog.obj
 0001:00002f90       ?run_dlgProc@FindReplaceDlg@@MAGHPAUHWND__@@IIJ@Z 10003f90 f   FindReplaceDialog.obj
 0001:00003380       ?isChecked@FindReplaceDlg@@ABEHH@Z 10004380 f i FindReplaceDialog.obj
 0001:000033c0       ?setTrans@FindReplaceDlg@@AAEXXZ 100043c0 f i FindReplaceDialog.obj
 0001:000034b0       ?initDialog@FindReplaceDlg@@AAEXXZ 100044b0 f   FindReplaceDialog.obj
 0001:000039d0       ?updateDialog@FindReplaceDlg@@AAEXXZ 100049d0 f   FindReplaceDialog.obj
 0001:00003d60       ?onFind@FindReplaceDlg@@AAEXH@Z 10004d60 f   FindReplaceDialog.obj
 0001:00004460       ?onReplace@FindReplaceDlg@@AAEXXZ 10005460 f   FindReplaceDialog.obj
 0001:00004770       ?processAll@FindReplaceDlg@@AAEXI@Z 10005770 f   FindReplaceDialog.obj
 0001:00005000       ?findNext@FindReplaceDlg@@QAEXPAUHWND__@@H@Z 10006000 f   FindReplaceDialog.obj
 0001:00005060       ?findPrev@FindReplaceDlg@@QAEXPAUHWND__@@H@Z 10006060 f   FindReplaceDialog.obj
 0001:000050c0       ?changeCoding@FindReplaceDlg@@AAEXXZ 100060c0 f   FindReplaceDialog.obj
 0001:00005180       ?getSelText@FindReplaceDlg@@AAEXPAUtComboInfo@@@Z 10006180 f   FindReplaceDialog.obj
 0001:00005320       ?doDialog@GotoDlg@@QAEXPAUHWND__@@@Z 10006320 f   GotoDialog.obj
 0001:000053b0       ?run_dlgProc@GotoDlg@@MAGHPAUHWND__@@IIJ@Z 100063b0 f   GotoDialog.obj
 0001:000057b0       ?wndEditProc@GotoDlg@@KGJPAUHWND__@@IIJ@Z 100067b0 f i GotoDialog.obj
 0001:000057e0       ?ASCIIConvert@@YAHPAD@Z    100067e0 f i GotoDialog.obj
 0001:00005840       ?runProcEdit@GotoDlg@@IAEJPAUHWND__@@IIJ@Z 10006840 f   GotoDialog.obj
 0001:000058e0       ?calcAddress@GotoDlg@@IAEXXZ 100068e0 f   GotoDialog.obj
 0001:00005b80       ?UpdateDialog@GotoDlg@@IAEXXZ 10006b80 f   GotoDialog.obj
 0001:00005de0       ??0HexEdit@@QAE@XZ         10006de0 f   HEXDialog.obj
 0001:00005f60       ??0StaticDialog@@QAE@XZ    10006f60 f i HEXDialog.obj
 0001:00005f90       ??1StaticDialog@@UAE@XZ    10006f90 f i HEXDialog.obj
 0001:00006000       ?isCreated@StaticDialog@@UBE_NXZ 10007000 f i HEXDialog.obj
 0001:00006000       ?isCreated@ColorPopup@@QBE_NXZ 10007000 f i ColorCombo.obj
 0001:00006020       ?destroy@StaticDialog@@UAEXXZ 10007020 f i HEXDialog.obj
 0001:00006060       ??_GStaticDialog@@UAEPAXI@Z 10007060 f i HEXDialog.obj
 0001:00006060       ??_EStaticDialog@@UAEPAXI@Z 10007060 f i HEXDialog.obj
 0001:00006090       ??0SciSubClassWrp@@QAE@XZ  10007090 f i HEXDialog.obj
 0001:000060d0       ?destroy@HexEdit@@UAEXXZ   100070d0 f i HEXDialog.obj
 0001:00006100       ?CleanUp@SciSubClassWrp@@QAEXXZ 10007100 f i HEXDialog.obj
 0001:00006160       ??_GHexEdit@@UAEPAXI@Z     10007160 f i HEXDialog.obj
 0001:00006160       ??_EHexEdit@@UAEPAXI@Z     10007160 f i HEXDialog.obj
 0001:00006190       ??1HexEdit@@UAE@XZ         10007190 f   HEXDialog.obj
 0001:000061f0       ?init@HexEdit@@QAEXPAUHINSTANCE__@@UNppData@@PBG@Z 100071f0 f   HEXDialog.obj
 0001:00006260       ?run_dlgProc@HexEdit@@MAGHPAUHWND__@@IIJ@Z 10007260 f   HEXDialog.obj
 0001:00006de0       ?execute@SciSubClassWrp@@QBEJIIJ@Z 10007de0 f i HEXDialog.obj
 0001:00006e10       ?SetCurrentLine@HexEdit@@QAEXI@Z 10007e10 f i HEXDialog.obj
 0001:00006ea0       ?GetCurrentLine@HexEdit@@QAEIXZ 10007ea0 f i HEXDialog.obj
 0001:00006ed0       ?GetItemCount@HexEdit@@QAEIXZ 10007ed0 f i HEXDialog.obj
 0001:00006f10       ?UpdateFont@HexEdit@@QAEXXZ 10007f10 f i HEXDialog.obj
 0001:00006f40       ?SetCompareResult@HexEdit@@QAEXPAUtCmpResult@@@Z 10007f40 f i HEXDialog.obj
 0001:00007060       ?wndListProc@HexEdit@@CGJPAUHWND__@@IIJ@Z 10008060 f i HEXDialog.obj
 0001:00007090       ?SetFont@HexEdit@@AAEHXZ   10008090 f i HEXDialog.obj
 0001:000071b0       ?RestartCursor@HexEdit@@AAEXXZ 100081b0 f i HEXDialog.obj
 0001:00007230       ?DisableCursor@HexEdit@@AAEXXZ 10008230 f i HEXDialog.obj
 0001:000072a0       ?cursorFunc@HexEdit@@CGXPAUHWND__@@IIK@Z 100082a0 f i HEXDialog.obj
 0001:000072d0       ?runCursor@HexEdit@@AAEXPAUHWND__@@IIK@Z 100082d0 f i HEXDialog.obj
 0001:00007330       ?EnsureVisible@HexEdit@@AAEXII@Z 10008330 f i HEXDialog.obj
 0001:00007420       ?runProcParent@HexEdit@@AAEJPAUHWND__@@IIJ@Z 10008420 f   HEXDialog.obj
 0001:00007540       ?CallScintillaWndProc@SciSubClassWrp@@QAGJPAUHWND__@@IIJ@Z 10008540 f i HEXDialog.obj
 0001:00007570       ?TabMessage@HexEdit@@AAEHXZ 10008570 f i HEXDialog.obj
 0001:00007690       ?runProcList@HexEdit@@AAEJPAUHWND__@@IIJ@Z 10008690 f   HEXDialog.obj
 0001:000085e0       ?UpdateListChanges@HexEdit@@AAEXXZ 100095e0 f i HEXDialog.obj
 0001:00008950       ?InvalidateNotepad@HexEdit@@AAEXXZ 10009950 f i HEXDialog.obj
 0001:000089b0       ?SetFocusNpp@HexEdit@@AAEXPAUHWND__@@@Z 100099b0 f i HEXDialog.obj
 0001:000089d0       ?UpdateDocs@HexEdit@@QAEXPAPBGIH@Z 100099d0 f   HEXDialog.obj
 0001:00008e00       ?doDialog@HexEdit@@QAEXH@Z 10009e00 f   HEXDialog.obj
 0001:00009070       ?MoveView@HexEdit@@AAEXXZ  1000a070 f   HEXDialog.obj
 0001:00009250       ?UpdateHeader@HexEdit@@AAEXH@Z 1000a250 f   HEXDialog.obj
 0001:000096b0       ?Copy@HexEdit@@QAEXXZ      1000a6b0 f   HEXDialog.obj
 0001:00009c10       ?CalcStride@HexEdit@@AAEHHH@Z 1000ac10 f i HEXDialog.obj
 0001:00009c40       ?Cut@HexEdit@@QAEXXZ       1000ac40 f   HEXDialog.obj
 0001:0000a470       ?Paste@HexEdit@@QAEXXZ     1000b470 f   HEXDialog.obj
 0001:0000b460       ?SelectAll@HexEdit@@QAEXXZ 1000c460 f   HEXDialog.obj
 0001:0000b490       ?ZoomIn@HexEdit@@QAEXXZ    1000c490 f   HEXDialog.obj
 0001:0000b510       ?ZoomOut@HexEdit@@QAEXXZ   1000c510 f   HEXDialog.obj
 0001:0000b580       ?ZoomRestore@HexEdit@@QAEXXZ 1000c580 f   HEXDialog.obj
 0001:0000b5c0       ?ReadArrayToList@HexEdit@@AAEXPADHH@Z 1000c5c0 f   HEXDialog.obj
 0001:0000c080       ?AddressConvert@HexEdit@@AAEXPADH@Z 1000d080 f   HEXDialog.obj
 0001:0000c280       ?DumpConvert@HexEdit@@AAEXPADI@Z 1000d280 f   HEXDialog.obj
 0001:0000c4b0       ?BinHexConvert@HexEdit@@AAEXPADH@Z 1000d4b0 f   HEXDialog.obj
 0001:0000c680       ?TrackMenu@HexEdit@@AAEXUtagPOINT@@@Z 1000d680 f   HEXDialog.obj
 0001:0000d320       ??0ColumnDlg@@QAE@XZ       1000e320 f i HEXDialog.obj
 0001:0000d340       ?ShouldDeleteCompare@HexEdit@@AAEHXZ 1000e340 f   HEXDialog.obj
 0001:0000d3d0       ?Delete@HexEdit@@QAEXXZ    1000e3d0 f   HEXDialog.obj
 0001:0000d5b0       ?DrawAddressText@HexEdit@@AAEXPAUHDC__@@K@Z 1000e5b0 f   HEXDialog.obj
 0001:0000d7b0       ?SelectItem@HexEdit@@AAEXIIH@Z 1000e7b0 f   HEXDialog.obj
 0001:0000d960       ?InvalidateList@HexEdit@@AAEXXZ 1000e960 f i HEXDialog.obj
 0001:0000d9e0       ?OnMouseClickItem@HexEdit@@AAEXIJ@Z 1000e9e0 f   HEXDialog.obj
 0001:0000db80       ?OnKeyDownItem@HexEdit@@AAEHIJ@Z 1000eb80 f   HEXDialog.obj
 0001:0000e480       ?OnCharItem@HexEdit@@AAEHIJ@Z 1000f480 f   HEXDialog.obj
 0001:0000ec20       ?DrawItemText@HexEdit@@AAEXPAUHDC__@@KH@Z 1000fc20 f   HEXDialog.obj
 0001:00010840       ?DrawCursor@HexEdit@@AAEXPAUHDC__@@AAUtagRECT@@H@Z 10011840 f i HEXDialog.obj
 0001:000108e0       ?DrawPartOfItemText@HexEdit@@AAEXPAUHDC__@@UtagRECT@@1PAGIIW4eSelItem@@W4eSelType@@@Z 100118e0 f   HEXDialog.obj
 0001:00010b20       ?SelectDump@HexEdit@@AAEXHH@Z 10011b20 f   HEXDialog.obj
 0001:00010e00       ?OnMouseClickDump@HexEdit@@AAEXIJ@Z 10011e00 f   HEXDialog.obj
 0001:00010f10       ?OnKeyDownDump@HexEdit@@AAEHIJ@Z 10011f10 f   HEXDialog.obj
 0001:00011340       ?OnCharDump@HexEdit@@AAEHIJ@Z 10012340 f   HEXDialog.obj
 0001:00011660       ?DrawDumpText@HexEdit@@AAEXPAUHDC__@@KH@Z 10012660 f   HEXDialog.obj
 0001:00012010       ?DrawPartOfDumpText@HexEdit@@AAEXPAUHDC__@@UtagRECT@@PAGIIW4eSelType@@@Z 10013010 f   HEXDialog.obj
 0001:000121a0       ?CalcCursorPos@HexEdit@@AAEHUtagLVHITTESTINFO@@@Z 100131a0 f   HEXDialog.obj
 0001:00012740       ?GlobalKeys@HexEdit@@AAEHIJ@Z 10013740 f   HEXDialog.obj
 0001:000130e0       ?SelectionKeys@HexEdit@@AAEXIJ@Z 100140e0 f   HEXDialog.obj
 0001:000137b0       ?SetPosition@HexEdit@@AAEXIH@Z 100147b0 f   HEXDialog.obj
 0001:00013a60       ?GetCurrentPos@HexEdit@@AAEIXZ 10014a60 f   HEXDialog.obj
 0001:00013bd0       ?GetAnchor@HexEdit@@AAEIXZ 10014bd0 f   HEXDialog.obj
 0001:00013ce0       ?GetSelection@HexEdit@@AAEXPAH0@Z 10014ce0 f   HEXDialog.obj
 0001:00013d10       ?SetSelection@HexEdit@@AAEXIIW4eSel@@H@Z 10014d10 f   HEXDialog.obj
 0001:00014020       ?SetLineVis@HexEdit@@AAEXIW4eLineVis@@@Z 10015020 f   HEXDialog.obj
 0001:00014120       ?GetLineVis@HexEdit@@AAEXXZ 10015120 f   HEXDialog.obj
 0001:00014170       ?NextBookmark@HexEdit@@QAEXXZ 10015170 f   HEXDialog.obj
 0001:000142a0       ?PrevBookmark@HexEdit@@QAEXXZ 100152a0 f   HEXDialog.obj
 0001:000143f0       ?ToggleBookmark@HexEdit@@QAEXXZ 100153f0 f   HEXDialog.obj
 0001:00014420       ?ToggleBookmark@HexEdit@@AAEXI@Z 10015420 f   HEXDialog.obj
 0001:00014610       ?QuickSortRecursive@HexEdit@@AAEXHH@Z 10015610 f i HEXDialog.obj
 0001:000147c0       ?UpdateBookmarks@HexEdit@@AAEXIH@Z 100157c0 f   HEXDialog.obj
 0001:00014b70       ?ClearBookmarks@HexEdit@@QAEXXZ 10015b70 f   HEXDialog.obj
 0001:00014bc0       ?CutBookmarkLines@HexEdit@@QAEXXZ 10015bc0 f   HEXDialog.obj
 0001:00014f40       ?CopyBookmarkLines@HexEdit@@QAEXXZ 10015f40 f   HEXDialog.obj
 0001:00015220       ?PasteBookmarkLines@HexEdit@@QAEXXZ 10016220 f   HEXDialog.obj
 0001:000154e0       ?DeleteBookmarkLines@HexEdit@@QAEXXZ 100164e0 f   HEXDialog.obj
 0001:00015650       ?SetStatusBar@HexEdit@@QAEXXZ 10016650 f   HEXDialog.obj
 0001:00015870       ?ConvertSelNppToHEX@HexEdit@@AAEXXZ 10016870 f   HEXDialog.obj
 0001:00015d50       ?ConvertSelHEXToNpp@HexEdit@@AAEXXZ 10016d50 f   HEXDialog.obj
 0001:000161e0       ??A?$vector@UtBkMk@@V?$allocator@UtBkMk@@@std@@@std@@QAEAAUtBkMk@@I@Z 100171e0 f i HEXDialog.obj
 0001:00016220       ?push_back@?$vector@UtBkMk@@V?$allocator@UtBkMk@@@std@@@std@@QAEXABUtBkMk@@@Z 10017220 f i HEXDialog.obj
 0001:00016280       ?erase@?$vector@UtBkMk@@V?$allocator@UtBkMk@@@std@@@std@@QAE?AV?$_Ptrit@UtBkMk@@HPAU1@AAU1@PAU1@AAU1@@2@V32@@Z 10017280 f i HEXDialog.obj
 0001:00016300       ??0?$vector@UtHexProp@@V?$allocator@UtHexProp@@@std@@@std@@QAE@XZ 10017300 f i HEXDialog.obj
 0001:00016330       ??4?$vector@UtHexProp@@V?$allocator@UtHexProp@@@std@@@std@@QAEAAV01@ABV01@@Z 10017330 f i HEXDialog.obj
 0001:000164f0       ?size@?$vector@UtHexProp@@V?$allocator@UtHexProp@@@std@@@std@@QBEIXZ 100174f0 f i HEXDialog.obj
 0001:00016530       ??A?$vector@UtHexProp@@V?$allocator@UtHexProp@@@std@@@std@@QAEAAUtHexProp@@I@Z 10017530 f i HEXDialog.obj
 0001:00016570       ?push_back@?$vector@UtHexProp@@V?$allocator@UtHexProp@@@std@@@std@@QAEXABUtHexProp@@@Z 10017570 f i HEXDialog.obj
 0001:000165d0       ?clear@?$vector@UtHexProp@@V?$allocator@UtHexProp@@@std@@@std@@QAEXXZ 100175d0 f i HEXDialog.obj
 0001:000165d0       ??1?$vector@UtHexProp@@V?$allocator@UtHexProp@@@std@@@std@@QAE@XZ 100175d0 f i HEXDialog.obj
 0001:000165f0       ?insert@?$vector@UtBkMk@@V?$allocator@UtBkMk@@@std@@@std@@QAE?AV?$_Ptrit@UtBkMk@@HPAU1@AAU1@PAU1@AAU1@@2@V32@ABUtBkMk@@@Z 100175f0 f i HEXDialog.obj
 0001:00016670       ?_Ufill@?$vector@UtBkMk@@V?$allocator@UtBkMk@@@std@@@std@@IAEPAUtBkMk@@PAU3@IABU3@@Z 10017670 f i HEXDialog.obj
 0001:000166a0       ?capacity@?$vector@UtHexProp@@V?$allocator@UtHexProp@@@std@@@std@@QBEIXZ 100176a0 f i HEXDialog.obj
 0001:000166e0       ?begin@?$vector@UtBkMk@@V?$allocator@UtBkMk@@@std@@@std@@QAE?AV?$_Ptrit@UtBkMk@@HPAU1@AAU1@PAU1@AAU1@@2@XZ 100176e0 f i HEXDialog.obj
 0001:000166e0       ?begin@?$vector@UtMenu@@V?$allocator@UtMenu@@@std@@@std@@QBE?AV?$_Ptrit@UtMenu@@HPBU1@ABU1@PAU1@AAU1@@2@XZ 100176e0 f i Hex.obj
 0001:000166e0       ?begin@?$vector@V?$basic_string@GU?$char_traits@G@std@@V?$allocator@G@2@@std@@V?$allocator@V?$basic_string@GU?$char_traits@G@std@@V?$allocator@G@2@@std@@@2@@std@@QAE?AV?$_Ptrit@V?$basic_string@GU?$char_traits@G@std@@V?$allocator@G@2@@std@@HPAV12@AAV12@PAV12@AAV12@@2@XZ 100176e0 f i Hex.obj
 0001:000166e0       ?begin@?$vector@UtHexProp@@V?$allocator@UtHexProp@@@std@@@std@@QAE?AV?$_Ptrit@UtHexProp@@HPAU1@AAU1@PAU1@AAU1@@2@XZ 100176e0 f i HEXDialog.obj
 0001:000166e0       ?begin@?$vector@UtBkMk@@V?$allocator@UtBkMk@@@std@@@std@@QBE?AV?$_Ptrit@UtBkMk@@HPBU1@ABU1@PAU1@AAU1@@2@XZ 100176e0 f i CompareDialog.obj
 0001:000166e0       ?begin@?$vector@UtHexProp@@V?$allocator@UtHexProp@@@std@@@std@@QBE?AV?$_Ptrit@UtHexProp@@HPBU1@ABU1@PAU1@AAU1@@2@XZ 100176e0 f i HEXDialog.obj
 0001:000166e0       ?begin@?$vector@UtMenu@@V?$allocator@UtMenu@@@std@@@std@@QAE?AV?$_Ptrit@UtMenu@@HPAU1@AAU1@PAU1@AAU1@@2@XZ 100176e0 f i Hex.obj
 0001:000166e0       ?begin@?$vector@TtEncComboInfo@@V?$allocator@TtEncComboInfo@@@std@@@std@@QAE?AV?$_Ptrit@TtEncComboInfo@@HPAT1@AAT1@PAT1@AAT1@@2@XZ 100176e0 f i MultiTypeCombo.obj
 0001:00016700       ?insert@?$vector@UtHexProp@@V?$allocator@UtHexProp@@@std@@@std@@QAE?AV?$_Ptrit@UtHexProp@@HPAU1@AAU1@PAU1@AAU1@@2@V32@ABUtHexProp@@@Z 10017700 f i HEXDialog.obj
 0001:00016780       ?_Buy@?$vector@UtHexProp@@V?$allocator@UtHexProp@@@std@@@std@@IAE_NI@Z 10017780 f i HEXDialog.obj
 0001:00016810       ?_Destroy@?$vector@UtHexProp@@V?$allocator@UtHexProp@@@std@@@std@@IAEXPAUtHexProp@@0@Z 10017810 f i HEXDialog.obj
 0001:00016840       ?_Tidy@?$vector@UtHexProp@@V?$allocator@UtHexProp@@@std@@@std@@IAEXXZ 10017840 f i HEXDialog.obj
 0001:000168b0       ?_Ufill@?$vector@UtHexProp@@V?$allocator@UtHexProp@@@std@@@std@@IAEPAUtHexProp@@PAU3@IABU3@@Z 100178b0 f i HEXDialog.obj
 0001:000168f0       ??0?$_Vector_val@UtHexProp@@V?$allocator@UtHexProp@@@std@@@std@@IAE@V?$allocator@UtHexProp@@@1@@Z 100178f0 f i HEXDialog.obj
 0001:000168f0       ??0?$_String_val@DV?$allocator@D@std@@@std@@IAE@V?$allocator@D@1@@Z 100178f0 f i CompareDialog.obj
 0001:000168f0       ??0?$_String_val@GV?$allocator@G@std@@@std@@IAE@V?$allocator@G@1@@Z 100178f0 f i Hex.obj
 0001:000168f0       ??0?$_Vector_val@V?$basic_string@GU?$char_traits@G@std@@V?$allocator@G@2@@std@@V?$allocator@V?$basic_string@GU?$char_traits@G@std@@V?$allocator@G@2@@std@@@2@@std@@IAE@V?$allocator@V?$basic_string@GU?$char_traits@G@std@@V?$allocator@G@2@@std@@@1@@Z 100178f0 f i Hex.obj
 0001:000168f0       ??0?$_Vector_val@TtEncComboInfo@@V?$allocator@TtEncComboInfo@@@std@@@std@@IAE@V?$allocator@TtEncComboInfo@@@1@@Z 100178f0 f i MultiTypeCombo.obj
 0001:000168f0       ??0?$_Vector_val@UtBkMk@@V?$allocator@UtBkMk@@@std@@@std@@IAE@V?$allocator@UtBkMk@@@1@@Z 100178f0 f i CompareDialog.obj
 0001:000168f0       ??0?$_Vector_val@UtMenu@@V?$allocator@UtMenu@@@std@@@std@@IAE@V?$allocator@UtMenu@@@1@@Z 100178f0 f i Hex.obj
 0001:00016910       ??0?$allocator@V?$basic_string@GU?$char_traits@G@std@@V?$allocator@G@2@@std@@@std@@QAE@XZ 10017910 f i Hex.obj
 0001:00016910       ??0?$allocator@G@std@@QAE@XZ 10017910 f i Hex.obj
 0001:00016910       ??0?$allocator@UtMenu@@@std@@QAE@XZ 10017910 f i Hex.obj
 0001:00016910       ??0?$allocator@TtEncComboInfo@@@std@@QAE@XZ 10017910 f i MultiTypeCombo.obj
 0001:00016910       ??0?$allocator@UtHexProp@@@std@@QAE@XZ 10017910 f i HEXDialog.obj
 0001:00016910       ??0?$allocator@UtBkMk@@@std@@QAE@XZ 10017910 f i CompareDialog.obj
 0001:00016910       ??0?$allocator@D@std@@QAE@XZ 10017910 f i CompareDialog.obj
 0001:00016920       ?deallocate@?$allocator@V?$basic_string@GU?$char_traits@G@std@@V?$allocator@G@2@@std@@@std@@QAEXPAV?$basic_string@GU?$char_traits@G@std@@V?$allocator@G@2@@2@I@Z 10017920 f i Hex.obj
 0001:00016920       ?deallocate@?$allocator@UtMenu@@@std@@QAEXPAUtMenu@@I@Z 10017920 f i Hex.obj
 0001:00016920       ?deallocate@?$allocator@TtEncComboInfo@@@std@@QAEXPATtEncComboInfo@@I@Z 10017920 f i MultiTypeCombo.obj
 0001:00016920       ?deallocate@?$allocator@D@std@@QAEXPADI@Z 10017920 f i CompareDialog.obj
 0001:00016920       ?deallocate@?$allocator@UtBkMk@@@std@@QAEXPAUtBkMk@@I@Z 10017920 f i CompareDialog.obj
 0001:00016920       ?deallocate@?$allocator@G@std@@QAEXPAGI@Z 10017920 f i Hex.obj
 0001:00016920       ?deallocate@?$allocator@UtHexProp@@@std@@QAEXPAUtHexProp@@I@Z 10017920 f i HEXDialog.obj
 0001:00016940       ??H?$_Ptrit@UtHexProp@@HPAU1@AAU1@PAU1@AAU1@@std@@QBE?AV01@H@Z 10017940 f i HEXDialog.obj
 0001:00016940       ??H?$_Ptrit@UtHexProp@@HPBU1@ABU1@PAU1@AAU1@@std@@QBE?AV01@H@Z 10017940 f i HEXDialog.obj
 0001:00016970       ?_Insert_n@?$vector@UtBkMk@@V?$allocator@UtBkMk@@@std@@@std@@IAEXV?$_Ptrit@UtBkMk@@HPAU1@AAU1@PAU1@AAU1@@2@IABUtBkMk@@@Z 10017970 f i HEXDialog.obj
 0001:00016d90       ??G?$_Ptrit@UtBkMk@@HPAU1@AAU1@PAU1@AAU1@@std@@QBEHABV01@@Z 10017d90 f i HEXDialog.obj
 0001:00016db0       ?max_size@?$vector@UtHexProp@@V?$allocator@UtHexProp@@@std@@@std@@QBEIXZ 10017db0 f i HEXDialog.obj
 0001:00016dd0       ?_Insert_n@?$vector@UtHexProp@@V?$allocator@UtHexProp@@@std@@@std@@IAEXV?$_Ptrit@UtHexProp@@HPAU1@AAU1@PAU1@AAU1@@2@IABUtHexProp@@@Z 10017dd0 f i HEXDialog.obj
 0001:00017370       ?_Xlen@?$vector@UtHexProp@@V?$allocator@UtHexProp@@@std@@@std@@IBEXXZ 10018370 f i HEXDialog.obj
 0001:000173d0       ?allocate@?$allocator@UtHexProp@@@std@@QAEPAUtHexProp@@IPBX@Z 100183d0 f i HEXDialog.obj
 0001:000173f0       ??G?$_Ptrit@UtHexProp@@HPAU1@AAU1@PAU1@AAU1@@std@@QBEHABV01@@Z 100183f0 f i HEXDialog.obj
 0001:00017410       ??G?$_Ptrit@UtBkMk@@HPAU1@AAU1@PAU1@AAU1@@std@@QBE?AV01@H@Z 10018410 f i HEXDialog.obj
 0001:00017440       ?max_size@?$allocator@UtHexProp@@@std@@QBEIXZ 10018440 f i HEXDialog.obj
 0001:00017470       ??D?$_Ptrit@UtBkMk@@HPBU1@ABU1@PAU1@AAU1@@std@@QBEABUtBkMk@@XZ 10018470 f i CompareDialog.obj
 0001:00017470       ?base@?$_Ptrit@UtMenu@@HPAU1@AAU1@PAU1@AAU1@@std@@QBEPAUtMenu@@XZ 10018470 f i Hex.obj
 0001:00017470       ??D?$_Ptrit@UtMenu@@HPAU1@AAU1@PAU1@AAU1@@std@@QBEAAUtMenu@@XZ 10018470 f i Hex.obj
 0001:00017470       ??D?$_Ptrit@TtEncComboInfo@@HPAT1@AAT1@PAT1@AAT1@@std@@QBEAATtEncComboInfo@@XZ 10018470 f i MultiTypeCombo.obj
 0001:00017470       ??D?$_Ptrit@UtHexProp@@HPAU1@AAU1@PAU1@AAU1@@std@@QBEAAUtHexProp@@XZ 10018470 f i HEXDialog.obj
 0001:00017470       ??D?$_Ptrit@UtBkMk@@HPAU1@AAU1@PAU1@AAU1@@std@@QBEAAUtBkMk@@XZ 10018470 f i HEXDialog.obj
 0001:00017470       ??D?$_Ptrit@V?$basic_string@GU?$char_traits@G@std@@V?$allocator@G@2@@std@@HPAV12@AAV12@PAV12@AAV12@@std@@QBEAAV?$basic_string@GU?$char_traits@G@std@@V?$allocator@G@2@@1@XZ 10018470 f i Hex.obj
 0001:00017470       ?base@?$_Ptrit@V?$basic_string@GU?$char_traits@G@std@@V?$allocator@G@2@@std@@HPAV12@AAV12@PAV12@AAV12@@std@@QBEPAV?$basic_string@GU?$char_traits@G@std@@V?$allocator@G@2@@2@XZ 10018470 f i Hex.obj
 0001:00017470       ??D?$_Ptrit@UtMenu@@HPBU1@ABU1@PAU1@AAU1@@std@@QBEABUtMenu@@XZ 10018470 f i Hex.obj
 0001:00017470       ?base@?$_Ptrit@TtEncComboInfo@@HPAT1@AAT1@PAT1@AAT1@@std@@QBEPATtEncComboInfo@@XZ 10018470 f i MultiTypeCombo.obj
 0001:00017470       ??D?$_Ptrit@UtHexProp@@HPBU1@ABU1@PAU1@AAU1@@std@@QBEABUtHexProp@@XZ 10018470 f i HEXDialog.obj
 0001:00017470       ?base@?$_Ptrit@UtBkMk@@HPAU1@AAU1@PAU1@AAU1@@std@@QBEPAUtBkMk@@XZ 10018470 f i HEXDialog.obj
 0001:00017470       ?base@?$_Ptrit@UtHexProp@@HPAU1@AAU1@PAU1@AAU1@@std@@QBEPAUtHexProp@@XZ 10018470 f i HEXDialog.obj
 0001:00017480       ??G?$_Ptrit@UtHexProp@@HPAU1@AAU1@PAU1@AAU1@@std@@QBE?AV01@H@Z 10018480 f i HEXDialog.obj
 0001:000174b0       ?copy@std@@YA?AV?$_Ptrit@UtBkMk@@HPAU1@AAU1@PAU1@AAU1@@1@V21@00@Z 100184b0 f i HEXDialog.obj
 0001:00017510       ?copy@std@@YAPAUtHexProp@@V?$_Ptrit@UtHexProp@@HPBU1@ABU1@PAU1@AAU1@@1@0PAU2@@Z 10018510 f i HEXDialog.obj
 0001:00017550       ?_Ucopy@?$vector@UtHexProp@@V?$allocator@UtHexProp@@@std@@@std@@IAEPAUtHexProp@@V?$_Ptrit@UtHexProp@@HPBU1@ABU1@PAU1@AAU1@@2@0PAU3@@Z 10018550 f i HEXDialog.obj
 0001:00017580       ?_Uninitialized_fill_n@std@@YAXPAUtBkMk@@IABU2@AAV?$allocator@UtBkMk@@@1@@Z 10018580 f i HEXDialog.obj
 0001:000175c0       ?_Destroy_range@std@@YAXPAUtHexProp@@0AAV?$allocator@UtHexProp@@@1@@Z 100185c0 f i HEXDialog.obj
 0001:00017600       ?_Uninitialized_fill_n@std@@YAXPAUtHexProp@@IABU2@AAV?$allocator@UtHexProp@@@1@@Z 10018600 f i HEXDialog.obj
 0001:00017640       ?_Ucopy@?$vector@UtBkMk@@V?$allocator@UtBkMk@@@std@@@std@@IAEPAUtBkMk@@V?$_Ptrit@UtBkMk@@HPAU1@AAU1@PAU1@AAU1@@2@0PAU3@@Z 10018640 f i HEXDialog.obj
 0001:00017680       ?fill@std@@YAXV?$_Ptrit@UtBkMk@@HPAU1@AAU1@PAU1@AAU1@@1@0ABUtBkMk@@@Z 10018680 f i HEXDialog.obj
 0001:000176c0       ?copy_backward@std@@YA?AV?$_Ptrit@UtBkMk@@HPAU1@AAU1@PAU1@AAU1@@1@V21@00@Z 100186c0 f i HEXDialog.obj
 0001:00017720       ?_Ucopy@?$vector@UtHexProp@@V?$allocator@UtHexProp@@@std@@@std@@IAEPAUtHexProp@@V?$_Ptrit@UtHexProp@@HPAU1@AAU1@PAU1@AAU1@@2@0PAU3@@Z 10018720 f i HEXDialog.obj
 0001:00017760       ?fill@std@@YAXV?$_Ptrit@UtHexProp@@HPAU1@AAU1@PAU1@AAU1@@1@0ABUtHexProp@@@Z 10018760 f i HEXDialog.obj
 0001:000177a0       ?copy_backward@std@@YA?AV?$_Ptrit@UtHexProp@@HPAU1@AAU1@PAU1@AAU1@@1@V21@00@Z 100187a0 f i HEXDialog.obj
 0001:00017800       ?_Allocate@std@@YAPAUtHexProp@@IPAU2@@Z 10018800 f i HEXDialog.obj
 0001:00017820       ?_Copy_opt@std@@YA?AV?$_Ptrit@UtBkMk@@HPAU1@AAU1@PAU1@AAU1@@1@V21@00U_Nonscalar_ptr_iterator_tag@1@@Z 10018820 f i HEXDialog.obj
 0001:00017880       ?_Copy_opt@std@@YAPAUtHexProp@@V?$_Ptrit@UtHexProp@@HPBU1@ABU1@PAU1@AAU1@@1@0PAU2@U_Nonscalar_ptr_iterator_tag@1@@Z 10018880 f i HEXDialog.obj
 0001:000178d0       ?_Uninitialized_copy@std@@YAPAUtHexProp@@V?$_Ptrit@UtHexProp@@HPBU1@ABU1@PAU1@AAU1@@1@0PAU2@AAV?$allocator@UtHexProp@@@1@@Z 100188d0 f i HEXDialog.obj
 0001:00017910       ?_Uninit_fill_n@std@@YAXPAUtBkMk@@IABU2@AAV?$allocator@UtBkMk@@@1@U_Nonscalar_ptr_iterator_tag@1@@Z 10018910 f i HEXDialog.obj
 0001:000179b0       ?_Destroy_range@std@@YAXPAUtHexProp@@0AAV?$allocator@UtHexProp@@@1@U_Nonscalar_ptr_iterator_tag@1@@Z 100189b0 f i HEXDialog.obj
 0001:000179e0       ?_Uninit_fill_n@std@@YAXPAUtHexProp@@IABU2@AAV?$allocator@UtHexProp@@@1@U_Nonscalar_ptr_iterator_tag@1@@Z 100189e0 f i HEXDialog.obj
 0001:00017a90       ?_Uninitialized_copy@std@@YAPAUtBkMk@@V?$_Ptrit@UtBkMk@@HPAU1@AAU1@PAU1@AAU1@@1@0PAU2@AAV?$allocator@UtBkMk@@@1@@Z 10018a90 f i HEXDialog.obj
 0001:00017ae0       ?_Copy_backward_opt@std@@YA?AV?$_Ptrit@UtBkMk@@HPAU1@AAU1@PAU1@AAU1@@1@V21@00U_Nonscalar_ptr_iterator_tag@1@@Z 10018ae0 f i HEXDialog.obj
 0001:00017b40       ?_Uninitialized_copy@std@@YAPAUtHexProp@@V?$_Ptrit@UtHexProp@@HPAU1@AAU1@PAU1@AAU1@@1@0PAU2@AAV?$allocator@UtHexProp@@@1@@Z 10018b40 f i HEXDialog.obj
 0001:00017b90       ?_Copy_backward_opt@std@@YA?AV?$_Ptrit@UtHexProp@@HPAU1@AAU1@PAU1@AAU1@@1@V21@00U_Nonscalar_ptr_iterator_tag@1@@Z 10018b90 f i HEXDialog.obj
 0001:00017bf0       ??F?$_Ptrit@UtBkMk@@HPAU1@AAU1@PAU1@AAU1@@std@@QAEAAV01@XZ 10018bf0 f i HEXDialog.obj
 0001:00017c10       ?construct@?$allocator@UtHexProp@@@std@@QAEXPAUtHexProp@@ABU3@@Z 10018c10 f i HEXDialog.obj
 0001:00017c30       ?destroy@?$allocator@UtHexProp@@@std@@QAEXPAUtHexProp@@@Z 10018c30 f i HEXDialog.obj
 0001:00017c50       ??F?$_Ptrit@UtHexProp@@HPAU1@AAU1@PAU1@AAU1@@std@@QAEAAV01@XZ 10018c50 f i HEXDialog.obj
 0001:00017c70       ??E?$_Ptrit@UtHexProp@@HPBU1@ABU1@PAU1@AAU1@@std@@QAEAAV01@XZ 10018c70 f i HEXDialog.obj
 0001:00017c70       ??E?$_Ptrit@UtHexProp@@HPAU1@AAU1@PAU1@AAU1@@std@@QAEAAV01@XZ 10018c70 f i HEXDialog.obj
 0001:00017c90       ?_Uninit_copy@std@@YAPAUtHexProp@@V?$_Ptrit@UtHexProp@@HPAU1@AAU1@PAU1@AAU1@@1@0PAU2@AAV?$allocator@UtHexProp@@@1@U_Nonscalar_ptr_iterator_tag@1@@Z 10018c90 f i HEXDialog.obj
 0001:00017c90       ?_Uninit_copy@std@@YAPAUtHexProp@@V?$_Ptrit@UtHexProp@@HPBU1@ABU1@PAU1@AAU1@@1@0PAU2@AAV?$allocator@UtHexProp@@@1@U_Nonscalar_ptr_iterator_tag@1@@Z 10018c90 f i HEXDialog.obj
 0001:00017d60       ?_Uninit_copy@std@@YAPAUtBkMk@@V?$_Ptrit@UtBkMk@@HPAU1@AAU1@PAU1@AAU1@@1@0PAU2@AAV?$allocator@UtBkMk@@@1@U_Nonscalar_ptr_iterator_tag@1@@Z 10018d60 f i HEXDialog.obj
 0001:00017e30       ?_Construct@std@@YAXPAUtHexProp@@ABU2@@Z 10018e30 f i HEXDialog.obj
 0001:00017ea0       ?_Destroy@std@@YAXPATtEncComboInfo@@@Z 10018ea0 f i MultiTypeCombo.obj
 0001:00017ea0       ??3@YAXPAX0@Z              10018ea0 f i HEXDialog.obj
 0001:00017ea0       ?_Destroy@std@@YAXPAUtBkMk@@@Z 10018ea0 f i CompareDialog.obj
 0001:00017eb0       ?_Destroy@std@@YAXPAUtHexProp@@@Z 10018eb0 f i HEXDialog.obj
 0001:00017ec0       ??_GtHexProp@@QAEPAXI@Z    10018ec0 f i HEXDialog.obj
 0001:00017ef0       ?doDialog@HelpDlg@@QAEXXZ  10018ef0 f   HelpDialog.obj
 0001:00017f30       ?run_dlgProc@HelpDlg@@MAGHPAUHWND__@@IIJ@Z 10018f30 f   HelpDialog.obj
 0001:000180e0       ??0FindReplaceDlg@@QAE@XZ  100190e0 f i Hex.obj
 0001:00018150       ??0OptionDlg@@QAE@XZ       10019150 f i Hex.obj
 0001:00018230       ??0ColorCombo@@QAE@XZ      10019230 f i Hex.obj
 0001:00018280       ??1ColorCombo@@UAE@XZ      10019280 f i Hex.obj
 0001:000182a0       ??_GColorCombo@@UAEPAXI@Z  100192a0 f i Hex.obj
 0001:000182a0       ??_EColorCombo@@UAEPAXI@Z  100192a0 f i Hex.obj
 0001:000182d0       ??_EOptionDlg@@UAEPAXI@Z   100192d0 f i Hex.obj
 0001:000182d0       ??_GOptionDlg@@UAEPAXI@Z   100192d0 f i Hex.obj
 0001:00018300       ??1OptionDlg@@UAE@XZ       10019300 f i Hex.obj
 0001:000183d0       ??0GotoDlg@@QAE@XZ         100193d0 f i Hex.obj
 0001:00018400       ??1PatternDlg@@UAE@XZ      10019400 f i Hex.obj
 0001:00018400       ??1GotoDlg@@UAE@XZ         10019400 f i Hex.obj
 0001:00018400       ??1FindReplaceDlg@@UAE@XZ  10019400 f i Hex.obj
 0001:00018400       ??1CompareDlg@@UAE@XZ      10019400 f i Hex.obj
 0001:00018400       ??1ColumnDlg@@UAE@XZ       10019400 f i HEXDialog.obj
 0001:00018420       ??0PatternDlg@@QAE@XZ      10019420 f i Hex.obj
 0001:00018440       ?destroy@PatternDlg@@UAEXXZ 10019440 f i Hex.obj
 0001:00018480       ??_GGotoDlg@@UAEPAXI@Z     10019480 f i Hex.obj
 0001:00018480       ??_EPatternDlg@@UAEPAXI@Z  10019480 f i Hex.obj
 0001:00018480       ??_ECompareDlg@@UAEPAXI@Z  10019480 f i Hex.obj
 0001:00018480       ??_GCompareDlg@@UAEPAXI@Z  10019480 f i Hex.obj
 0001:00018480       ??_GColumnDlg@@UAEPAXI@Z   10019480 f i HEXDialog.obj
 0001:00018480       ??_EFindReplaceDlg@@UAEPAXI@Z 10019480 f i Hex.obj
 0001:00018480       ??_EGotoDlg@@UAEPAXI@Z     10019480 f i Hex.obj
 0001:00018480       ??_EColumnDlg@@UAEPAXI@Z   10019480 f i HEXDialog.obj
 0001:00018480       ??_GPatternDlg@@UAEPAXI@Z  10019480 f i Hex.obj
 0001:00018480       ??_GFindReplaceDlg@@UAEPAXI@Z 10019480 f i Hex.obj
 0001:000184b0       ??0HelpDlg@@QAE@XZ         100194b0 f i Hex.obj
 0001:00018520       ??0URLCtrl@@QAE@XZ         10019520 f i Hex.obj
 0001:00018580       ?destroy@URLCtrl@@UAEXXZ   10019580 f i Hex.obj
 0001:000185d0       ??_GURLCtrl@@UAEPAXI@Z     100195d0 f i Hex.obj
 0001:000185d0       ??_EURLCtrl@@UAEPAXI@Z     100195d0 f i Hex.obj
 0001:00018600       ??1URLCtrl@@UAE@XZ         10019600 f i Hex.obj
 0001:00018620       ?destroy@HelpDlg@@UAEXXZ   10019620 f i Hex.obj
 0001:00018650       ??_GHelpDlg@@UAEPAXI@Z     10019650 f i Hex.obj
 0001:00018650       ??_EHelpDlg@@UAEPAXI@Z     10019650 f i Hex.obj
 0001:00018680       ??1HelpDlg@@UAE@XZ         10019680 f i Hex.obj
 0001:000186e0       ??0tProp@@QAE@XZ           100196e0 f i Hex.obj
 0001:00018700       ??1tProp@@QAE@XZ           10019700 f i Hex.obj
 0001:00018720       _DllMain@12                10019720 f   Hex.obj
 0001:000189a0       ?ClearAllCompareResults@HexEdit@@QAEXXZ 100199a0 f i Hex.obj
 0001:00018ad0       _setInfo                   10019ad0 f   Hex.obj
 0001:00018ca0       ?SetParentNppHandle@HexEdit@@QAEXPAUHWND__@@I@Z 10019ca0 f i Hex.obj
 0001:00018d00       ?Init@SciSubClassWrp@@QAEXPAUHWND__@@P6GJ0IIJ@Z@Z 10019d00 f i Hex.obj
 0001:00018d60       ?SubclassScintillaWndProc@SciSubClassWrp@@AAEXP6GJPAUHWND__@@IIJ@Z@Z 10019d60 f i Hex.obj
 0001:00018dd0       ?wndParentProc0@HexEdit@@CGJPAUHWND__@@IIJ@Z 10019dd0 f i Hex.obj
 0001:00018e00       ?wndParentProc1@HexEdit@@CGJPAUHWND__@@IIJ@Z 10019e00 f i Hex.obj
 0001:00018e30       ?init@ColumnDlg@@QAEXPAUHINSTANCE__@@UNppData@@@Z 10019e30 f i HEXDialog.obj
 0001:00018e30       ?init@OptionDlg@@QAEXPAUHINSTANCE__@@UNppData@@@Z 10019e30 f i Hex.obj
 0001:00018e30       ?init@CompareDlg@@QAEXPAUHINSTANCE__@@UNppData@@@Z 10019e30 f i Hex.obj
 0001:00018e30       ?init@PatternDlg@@QAEXPAUHINSTANCE__@@UNppData@@@Z 10019e30 f i Hex.obj
 0001:00018e30       ?init@HelpDlg@@QAEXPAUHINSTANCE__@@UNppData@@@Z 10019e30 f i Hex.obj
 0001:00018e70       ?init@FindReplaceDlg@@QAEXPAUHINSTANCE__@@UNppData@@@Z 10019e70 f i Hex.obj
 0001:00018eb0       ?init@GotoDlg@@QAEXPAUHINSTANCE__@@UNppData@@PAG@Z 10019eb0 f i Hex.obj
 0001:00018ef0       _getName                   10019ef0 f   Hex.obj
 0001:00018f00       _getFuncsArray             10019f00 f   Hex.obj
 0001:00018f20       _beNotified                10019f20 f   Hex.obj
 0001:00019260       ?RedoUndo@HexEdit@@QAEXIHI@Z 1001a260 f i Hex.obj
 0001:00019670       ?TestLineLength@HexEdit@@QAEXXZ 1001a670 f i Hex.obj
 0001:000197a0       _messageProc               1001a7a0 f   Hex.obj
 0001:000197c0       _isUnicode                 1001a7c0 f   Hex.obj
 0001:000197d0       ?loadSettings@@YAXXZ       1001a7d0 f   Hex.obj
 0001:00019c80       ?saveSettings@@YAXXZ       1001ac80 f   Hex.obj
 0001:0001a060       ?setHexMask@@YAXXZ         1001b060 f   Hex.obj
 0001:0001a0a0       ?setMenu@@YAXXZ            1001b0a0 f   Hex.obj
 0001:0001a220       ?checkMenu@@YAXH@Z         1001b220 f   Hex.obj
 0001:0001a250       ?getProp@@YA?AUtHexProp@@XZ 1001b250 f   Hex.obj
 0001:0001a280       ?getCLM@@YAHXZ             1001b280 f   Hex.obj
 0001:0001a290       ?getFontName@@YAPBGXZ      1001b290 f   Hex.obj
 0001:0001a2a0       ?getFontSizeElem@@YAIXZ    1001b2a0 f   Hex.obj
 0001:0001a2b0       ?isFontBold@@YAHXZ         1001b2b0 f   Hex.obj
 0001:0001a2c0       ?isFontItalic@@YAHXZ       1001b2c0 f   Hex.obj
 0001:0001a2d0       ?isFontUnderline@@YAHXZ    1001b2d0 f   Hex.obj
 0001:0001a2e0       ?isFocusRect@@YAHXZ        1001b2e0 f   Hex.obj
 0001:0001a2f0       ?getColor@@YAKW4eColorType@@@Z 1001b2f0 f   Hex.obj
 0001:0001a370       ?ScintillaMsg@@YAIPAUHWND__@@IIJ@Z 1001b370 f   Hex.obj
 0001:0001a3a0       ?CleanScintillaBuf@@YAXPAUHWND__@@@Z 1001b3a0 f   Hex.obj
 0001:0001a3e0       ?ScintillaGetText@@YAIPAUHWND__@@PADHH@Z 1001b3e0 f   Hex.obj
 0001:0001a420       ?UpdateCurrentHScintilla@@YAXXZ 1001b420 f   Hex.obj
 0001:0001a480       ?getCurrentHScintilla@@YAPAUHWND__@@XZ 1001b480 f   Hex.obj
 0001:0001a490       ?toggleHexEdit@@YAXXZ      1001b490 f   Hex.obj
 0001:0001a4b0       ?compareHex@@YAXXZ         1001b4b0 f   Hex.obj
 0001:0001a4d0       ?clearCompare@@YAXXZ       1001b4d0 f   Hex.obj
 0001:0001a540       ?insertColumnsDlg@@YAXXZ   1001b540 f   Hex.obj
 0001:0001a560       ?getNewBuf@Utf8_16_Write@@QAEPADXZ 1001b560 f i MultiTypeCombo.obj
 0001:0001a560       ?getHSelf@Window@@QBEPAUHWND__@@XZ 1001b560 f i Hex.obj
 0001:0001a580       ?replacePatternDlg@@YAXXZ  1001b580 f   Hex.obj
 0001:0001a5a0       ?openPropDlg@@YAXXZ        1001b5a0 f   Hex.obj
 0001:0001a5e0       ?openHelpDlg@@YAXXZ        1001b5e0 f   Hex.obj
 0001:0001a5f0       ?SubWndProcNotepad@@YGJPAUHWND__@@IIJ@Z 1001b5f0 f   Hex.obj
 0001:0001b1d0       ?FileNameChanged@HexEdit@@QAEXPAG@Z 1001c1d0 f i Hex.obj
 0001:0001b210       ?ResetModificationState@HexEdit@@QAEXXZ 1001c210 f i Hex.obj
 0001:0001b240       ?GetModificationState@HexEdit@@QAEHXZ 1001c240 f i Hex.obj
 0001:0001b270       ?SystemUpdate@@YAXXZ       1001c270 f   Hex.obj
 0001:0001b6e0       ?ActivateWindow@@YAXXZ     1001c6e0 f   Hex.obj
 0001:0001b750       ?DialogUpdate@@YAXXZ       1001c750 f   Hex.obj
 0001:0001b8b0       ?isFindReplace@FindReplaceDlg@@QAEHXZ 1001c8b0 f i Hex.obj
 0001:0001b8d0       ?IsExtensionRegistered@@YAHPBG@Z 1001c8d0 f   Hex.obj
 0001:0001b9a0       ?IsPercentReached@@YAHPBG@Z 1001c9a0 f   Hex.obj
 0001:0001bb90       ?ChangeClipboardDataToHex@@YAXPAUtClipboard@@@Z 1001cb90 f   Hex.obj
 0001:0001bc60       ?LittleEndianChange@@YAHPAUHWND__@@0PAH1@Z 1001cc60 f   Hex.obj
 0001:0001c030       ?replaceLittleToBig@@YA?AW4eError@@PAUHWND__@@0HHHH@Z 1001d030 f   Hex.obj
 0001:0001c520       ?DoCompare@@YAXXZ          1001d520 f   Hex.obj
 0001:0001ccc0       ??0CompareDlg@@QAE@XZ      1001dcc0 f i Hex.obj
 0001:0001cce0       ?destroy@FindReplaceDlg@@UAEXXZ 1001dce0 f i Hex.obj
 0001:0001cce0       ?destroy@OptionDlg@@UAEXXZ 1001dce0 f i Hex.obj
 0001:0001cce0       ?destroy@GotoDlg@@UAEXXZ   1001dce0 f i Hex.obj
 0001:0001cce0       ?destroy@CompareDlg@@UAEXXZ 1001dce0 f i Hex.obj
 0001:0001cce0       ?destroy@ColumnDlg@@UAEXXZ 1001dce0 f i HEXDialog.obj
 0001:0001ccf0       ?GetNppEncoding@@YA?AW4eNppCoding@@XZ 1001dcf0 f   Hex.obj
 0001:0001cda0       ?ChangeNppMenu@@YAXHPAUHWND__@@@Z 1001dda0 f   Hex.obj
 0001:0001dbb0       ??0tMenu@@QAE@ABU0@@Z      1001ebb0 f i Hex.obj
 0001:0001dc10       ??1tMenu@@QAE@XZ           1001ec10 f i Hex.obj
 0001:0001dc30       ?StoreNppMenuInfo@@YAXPAUHMENU__@@AAV?$vector@UtMenu@@V?$allocator@UtMenu@@@std@@@std@@@Z 1001ec30 f   Hex.obj
 0001:0001dd90       ??0tMenu@@QAE@XZ           1001ed90 f i Hex.obj
 0001:0001ddb0       ?UpdateNppMenuInfo@@YAXPAUHMENU__@@AAV?$vector@UtMenu@@V?$allocator@UtMenu@@@std@@@std@@@Z 1001edb0 f   Hex.obj
 0001:0001de90       ?ScreenToClient@@YAXPAUHWND__@@PAUtagRECT@@@Z 1001ee90 f   Hex.obj
 0001:0001df00       ??0?$vector@UtMenu@@V?$allocator@UtMenu@@@std@@@std@@QAE@XZ 1001ef00 f i Hex.obj
 0001:0001df30       ??0?$vector@UtMenu@@V?$allocator@UtMenu@@@std@@@std@@QAE@ABV01@@Z 1001ef30 f i Hex.obj
 0001:0001e010       ?size@?$vector@UtMenu@@V?$allocator@UtMenu@@@std@@@std@@QBEIXZ 1001f010 f i Hex.obj
 0001:0001e050       ??A?$vector@UtMenu@@V?$allocator@UtMenu@@@std@@@std@@QAEAAUtMenu@@I@Z 1001f050 f i Hex.obj
 0001:0001e090       ?push_back@?$vector@UtMenu@@V?$allocator@UtMenu@@@std@@@std@@QAEXABUtMenu@@@Z 1001f090 f i Hex.obj
 0001:0001e0f0       ?clear@?$vector@UtMenu@@V?$allocator@UtMenu@@@std@@@std@@QAEXXZ 1001f0f0 f i Hex.obj
 0001:0001e0f0       ??1?$vector@UtMenu@@V?$allocator@UtMenu@@@std@@@std@@QAE@XZ 1001f0f0 f i Hex.obj
 0001:0001e110       ??0?$basic_string@GU?$char_traits@G@std@@V?$allocator@G@2@@std@@QAE@PBG@Z 1001f110 f i Hex.obj
 0001:0001e150       ??1?$basic_string@GU?$char_traits@G@std@@V?$allocator@G@2@@std@@QAE@XZ 1001f150 f i Hex.obj
 0001:0001e170       ?c_str@?$basic_string@GU?$char_traits@G@std@@V?$allocator@G@2@@std@@QBEPBGXZ 1001f170 f i Hex.obj
 0001:0001e190       ??0?$vector@V?$basic_string@GU?$char_traits@G@std@@V?$allocator@G@2@@std@@V?$allocator@V?$basic_string@GU?$char_traits@G@std@@V?$allocator@G@2@@std@@@2@@std@@QAE@XZ 1001f190 f i Hex.obj
 0001:0001e1c0       ??1?$vector@V?$basic_string@GU?$char_traits@G@std@@V?$allocator@G@2@@std@@V?$allocator@V?$basic_string@GU?$char_traits@G@std@@V?$allocator@G@2@@std@@@2@@std@@QAE@XZ 1001f1c0 f i Hex.obj
 0001:0001e1e0       ?size@?$vector@V?$basic_string@GU?$char_traits@G@std@@V?$allocator@G@2@@std@@V?$allocator@V?$basic_string@GU?$char_traits@G@std@@V?$allocator@G@2@@std@@@2@@std@@QBEIXZ 1001f1e0 f i Hex.obj
 0001:0001e220       ??A?$vector@V?$basic_string@GU?$char_traits@G@std@@V?$allocator@G@2@@std@@V?$allocator@V?$basic_string@GU?$char_traits@G@std@@V?$allocator@G@2@@std@@@2@@std@@QAEAAV?$basic_string@GU?$char_traits@G@std@@V?$allocator@G@2@@1@I@Z 1001f220 f i Hex.obj
 0001:0001e260       ?push_back@?$vector@V?$basic_string@GU?$char_traits@G@std@@V?$allocator@G@2@@std@@V?$allocator@V?$basic_string@GU?$char_traits@G@std@@V?$allocator@G@2@@std@@@2@@std@@QAEXABV?$basic_string@GU?$char_traits@G@std@@V?$allocator@G@2@@2@@Z 1001f260 f i Hex.obj
 0001:0001e2c0       ?capacity@?$vector@UtMenu@@V?$allocator@UtMenu@@@std@@@std@@QBEIXZ 1001f2c0 f i Hex.obj
 0001:0001e300       ?insert@?$vector@UtMenu@@V?$allocator@UtMenu@@@std@@@std@@QAE?AV?$_Ptrit@UtMenu@@HPAU1@AAU1@PAU1@AAU1@@2@V32@ABUtMenu@@@Z 1001f300 f i Hex.obj
 0001:0001e380       ?_Buy@?$vector@UtMenu@@V?$allocator@UtMenu@@@std@@@std@@IAE_NI@Z 1001f380 f i Hex.obj
 0001:0001e410       ?_Tidy@?$vector@UtMenu@@V?$allocator@UtMenu@@@std@@@std@@IAEXXZ 1001f410 f i Hex.obj
 0001:0001e480       ?_Ufill@?$vector@UtMenu@@V?$allocator@UtMenu@@@std@@@std@@IAEPAUtMenu@@PAU3@IABU3@@Z 1001f480 f i Hex.obj
 0001:0001e4c0       ??H?$_Ptrit@UtMenu@@HPBU1@ABU1@PAU1@AAU1@@std@@QBE?AV01@H@Z 1001f4c0 f i Hex.obj
 0001:0001e4c0       ??H?$_Ptrit@UtMenu@@HPAU1@AAU1@PAU1@AAU1@@std@@QBE?AV01@H@Z 1001f4c0 f i Hex.obj
 0001:0001e4f0       ?assign@?$basic_string@GU?$char_traits@G@std@@V?$allocator@G@2@@std@@QAEAAV12@PBG@Z 1001f4f0 f i Hex.obj
 0001:0001e520       ?length@?$char_traits@G@std@@SAIPBG@Z 1001f520 f i Hex.obj
 0001:0001e540       ?_Myptr@?$basic_string@GU?$char_traits@G@std@@V?$allocator@G@2@@std@@ABEPBGXZ 1001f540 f i Hex.obj
 0001:0001e540       ?_Myptr@?$basic_string@GU?$char_traits@G@std@@V?$allocator@G@2@@std@@AAEPAGXZ 1001f540 f i Hex.obj
 0001:0001e570       ?_Tidy@?$basic_string@GU?$char_traits@G@std@@V?$allocator@G@2@@std@@AAEX_N@Z 1001f570 f i Hex.obj
 0001:0001e5d0       ?capacity@?$vector@V?$basic_string@GU?$char_traits@G@std@@V?$allocator@G@2@@std@@V?$allocator@V?$basic_string@GU?$char_traits@G@std@@V?$allocator@G@2@@std@@@2@@std@@QBEIXZ 1001f5d0 f i Hex.obj
 0001:0001e610       ?insert@?$vector@V?$basic_string@GU?$char_traits@G@std@@V?$allocator@G@2@@std@@V?$allocator@V?$basic_string@GU?$char_traits@G@std@@V?$allocator@G@2@@std@@@2@@std@@QAE?AV?$_Ptrit@V?$basic_string@GU?$char_traits@G@std@@V?$allocator@G@2@@std@@HPAV12@AAV12@PAV12@AAV12@@2@V32@ABV?$basic_string@GU?$char_traits@G@std@@V?$allocator@G@2@@2@@Z 1001f610 f i Hex.obj
 0001:0001e690       ?_Buy@?$vector@V?$basic_string@GU?$char_traits@G@std@@V?$allocator@G@2@@std@@V?$allocator@V?$basic_string@GU?$char_traits@G@std@@V?$allocator@G@2@@std@@@2@@std@@IAE_NI@Z 1001f690 f i Hex.obj
 0001:0001e710       ?_Tidy@?$vector@V?$basic_string@GU?$char_traits@G@std@@V?$allocator@G@2@@std@@V?$allocator@V?$basic_string@GU?$char_traits@G@std@@V?$allocator@G@2@@std@@@2@@std@@IAEXXZ 1001f710 f i Hex.obj
 0001:0001e780       ?_Ufill@?$vector@V?$basic_string@GU?$char_traits@G@std@@V?$allocator@G@2@@std@@V?$allocator@V?$basic_string@GU?$char_traits@G@std@@V?$allocator@G@2@@std@@@2@@std@@IAEPAV?$basic_string@GU?$char_traits@G@std@@V?$allocator@G@2@@2@PAV32@IABV32@@Z 1001f780 f i Hex.obj
 0001:0001e7b0       ??H?$_Ptrit@V?$basic_string@GU?$char_traits@G@std@@V?$allocator@G@2@@std@@HPAV12@AAV12@PAV12@AAV12@@std@@QBE?AV01@H@Z 1001f7b0 f i Hex.obj
 0001:0001e7e0       ?max_size@?$vector@UtMenu@@V?$allocator@UtMenu@@@std@@@std@@QBEIXZ 1001f7e0 f i Hex.obj
 0001:0001e800       ?_Destroy@?$vector@UtMenu@@V?$allocator@UtMenu@@@std@@@std@@IAEXPAUtMenu@@0@Z 1001f800 f i Hex.obj
 0001:0001e830       ?_Insert_n@?$vector@UtMenu@@V?$allocator@UtMenu@@@std@@@std@@IAEXV?$_Ptrit@UtMenu@@HPAU1@AAU1@PAU1@AAU1@@2@IABUtMenu@@@Z 1001f830 f i Hex.obj
 0001:0001edd0       ?_Xlen@?$vector@V?$basic_string@GU?$char_traits@G@std@@V?$allocator@G@2@@std@@V?$allocator@V?$basic_string@GU?$char_traits@G@std@@V?$allocator@G@2@@std@@@2@@std@@IBEXXZ 1001fdd0 f i Hex.obj
 0001:0001edd0       ?_Xlen@?$vector@UtMenu@@V?$allocator@UtMenu@@@std@@@std@@IBEXXZ 1001fdd0 f i Hex.obj
 0001:0001ee30       ?allocate@?$allocator@UtMenu@@@std@@QAEPAUtMenu@@IPBX@Z 1001fe30 f i Hex.obj
 0001:0001ee50       ??G?$_Ptrit@UtMenu@@HPAU1@AAU1@PAU1@AAU1@@std@@QBEHABV01@@Z 1001fe50 f i Hex.obj
 0001:0001ee70       ?assign@?$basic_string@GU?$char_traits@G@std@@V?$allocator@G@2@@std@@QAEAAV12@PBGI@Z 1001fe70 f i Hex.obj
 0001:0001ef00       ?copy@?$char_traits@G@std@@SAPAGPAGPBGI@Z 1001ff00 f i Hex.obj
 0001:0001ef20       _wmemcpy                   1001ff20 f i Hex.obj
 0001:0001ef40       ?_Eos@?$basic_string@GU?$char_traits@G@std@@V?$allocator@G@2@@std@@AAEXI@Z 1001ff40 f i Hex.obj
 0001:0001ef80       ?assign@?$char_traits@G@std@@SAXAAGABG@Z 1001ff80 f i Hex.obj
 0001:0001efa0       ?max_size@?$vector@V?$basic_string@GU?$char_traits@G@std@@V?$allocator@G@2@@std@@V?$allocator@V?$basic_string@GU?$char_traits@G@std@@V?$allocator@G@2@@std@@@2@@std@@QBEIXZ 1001ffa0 f i Hex.obj
 0001:0001efc0       ?_Destroy@?$vector@V?$basic_string@GU?$char_traits@G@std@@V?$allocator@G@2@@std@@V?$allocator@V?$basic_string@GU?$char_traits@G@std@@V?$allocator@G@2@@std@@@2@@std@@IAEXPAV?$basic_string@GU?$char_traits@G@std@@V?$allocator@G@2@@2@0@Z 1001ffc0 f i Hex.obj
 0001:0001eff0       ?_Insert_n@?$vector@V?$basic_string@GU?$char_traits@G@std@@V?$allocator@G@2@@std@@V?$allocator@V?$basic_string@GU?$char_traits@G@std@@V?$allocator@G@2@@std@@@2@@std@@IAEXV?$_Ptrit@V?$basic_string@GU?$char_traits@G@std@@V?$allocator@G@2@@std@@HPAV12@AAV12@PAV12@AAV12@@2@IABV?$basic_string@GU?$char_traits@G@std@@V?$allocator@G@2@@2@@Z 1001fff0 f i Hex.obj
 0001:0001f4e0       ?allocate@?$allocator@V?$basic_string@GU?$char_traits@G@std@@V?$allocator@G@2@@std@@@std@@QAEPAV?$basic_string@GU?$char_traits@G@std@@V?$allocator@G@2@@2@IPBX@Z 100204e0 f i Hex.obj
 0001:0001f500       ??0?$_Ptrit@UtHexProp@@HPAU1@AAU1@PAU1@AAU1@@std@@QAE@ABV01@@Z 10020500 f i HEXDialog.obj
 0001:0001f500       ??0?$_Ptrit@UtBkMk@@HPAU1@AAU1@PAU1@AAU1@@std@@QAE@ABV01@@Z 10020500 f i HEXDialog.obj
 0001:0001f500       ??0?$_Ptrit@TtEncComboInfo@@HPAT1@AAT1@PAT1@AAT1@@std@@QAE@ABV01@@Z 10020500 f i MultiTypeCombo.obj
 0001:0001f500       ??0?$_Ptrit@UtMenu@@HPAU1@AAU1@PAU1@AAU1@@std@@QAE@ABV01@@Z 10020500 f i Hex.obj
 0001:0001f500       ??0?$_Ptrit@V?$basic_string@GU?$char_traits@G@std@@V?$allocator@G@2@@std@@HPAV12@AAV12@PAV12@AAV12@@std@@QAE@ABV01@@Z 10020500 f i Hex.obj
 0001:0001f520       ??G?$_Ptrit@V?$basic_string@GU?$char_traits@G@std@@V?$allocator@G@2@@std@@HPAV12@AAV12@PAV12@AAV12@@std@@QBEHABV01@@Z 10020520 f i Hex.obj
 0001:0001f540       ?max_size@?$allocator@UtMenu@@@std@@QBEIXZ 10020540 f i Hex.obj
 0001:0001f570       ??G?$_Ptrit@UtMenu@@HPAU1@AAU1@PAU1@AAU1@@std@@QBE?AV01@H@Z 10020570 f i Hex.obj
 0001:0001f5a0       ??0?$basic_string@GU?$char_traits@G@std@@V?$allocator@G@2@@std@@QAE@ABV01@@Z 100205a0 f i Hex.obj
 0001:0001f5f0       ?assign@?$basic_string@GU?$char_traits@G@std@@V?$allocator@G@2@@std@@QAEAAV12@ABV12@II@Z 100205f0 f i Hex.obj
 0001:0001f6b0       ?_Grow@?$basic_string@GU?$char_traits@G@std@@V?$allocator@G@2@@std@@AAE_NI_N@Z 100206b0 f i Hex.obj
 0001:0001f750       ?_Inside@?$basic_string@GU?$char_traits@G@std@@V?$allocator@G@2@@std@@AAE_NPBG@Z 10020750 f i Hex.obj
 0001:0001f7a0       ?max_size@?$allocator@V?$basic_string@GU?$char_traits@G@std@@V?$allocator@G@2@@std@@@std@@QBEIXZ 100207a0 f i Hex.obj
 0001:0001f7d0       ??G?$_Ptrit@V?$basic_string@GU?$char_traits@G@std@@V?$allocator@G@2@@std@@HPAV12@AAV12@PAV12@AAV12@@std@@QBE?AV01@H@Z 100207d0 f i Hex.obj
 0001:0001f800       ?erase@?$basic_string@GU?$char_traits@G@std@@V?$allocator@G@2@@std@@QAEAAV12@II@Z 10020800 f i Hex.obj
 0001:0001f8b0       ?move@?$char_traits@G@std@@SAPAGPAGPBGI@Z 100208b0 f i Hex.obj
 0001:0001f8d0       _wmemmove                  100208d0 f i Hex.obj
 0001:0001f8f0       ?size@?$basic_string@GU?$char_traits@G@std@@V?$allocator@G@2@@std@@QBEIXZ 100208f0 f i Hex.obj
 0001:0001f8f0       ?size@?$basic_string@DU?$char_traits@D@std@@V?$allocator@D@2@@std@@QBEIXZ 100208f0 f i CompareDialog.obj
 0001:0001f910       ?max_size@?$basic_string@GU?$char_traits@G@std@@V?$allocator@G@2@@std@@QBEIXZ 10020910 f i Hex.obj
 0001:0001f950       ?_Copy@?$basic_string@GU?$char_traits@G@std@@V?$allocator@G@2@@std@@AAEXII@Z 10020950 f i Hex.obj
 0001:0001fa60       ?allocate@?$allocator@G@std@@QAEPAGIPBX@Z 10020a60 f i Hex.obj
 0001:0001fa80       ?max_size@?$allocator@G@std@@QBEIXZ 10020a80 f i Hex.obj
 0001:0001fab0       ?_Ucopy@?$vector@UtMenu@@V?$allocator@UtMenu@@@std@@@std@@IAEPAUtMenu@@V?$_Ptrit@UtMenu@@HPBU1@ABU1@PAU1@AAU1@@2@0PAU3@@Z 10020ab0 f i Hex.obj
 0001:0001fae0       ?_Uninitialized_fill_n@std@@YAXPAUtMenu@@IABU2@AAV?$allocator@UtMenu@@@1@@Z 10020ae0 f i Hex.obj
 0001:0001fb20       ?_Uninitialized_fill_n@std@@YAXPAV?$basic_string@GU?$char_traits@G@std@@V?$allocator@G@2@@1@IABV21@AAV?$allocator@V?$basic_string@GU?$char_traits@G@std@@V?$allocator@G@2@@std@@@1@@Z 10020b20 f i Hex.obj
 0001:0001fb60       ?_Destroy_range@std@@YAXPAUtMenu@@0AAV?$allocator@UtMenu@@@1@@Z 10020b60 f i Hex.obj
 0001:0001fba0       ?_Ucopy@?$vector@UtMenu@@V?$allocator@UtMenu@@@std@@@std@@IAEPAUtMenu@@V?$_Ptrit@UtMenu@@HPAU1@AAU1@PAU1@AAU1@@2@0PAU3@@Z 10020ba0 f i Hex.obj
 0001:0001fbe0       ?fill@std@@YAXV?$_Ptrit@UtMenu@@HPAU1@AAU1@PAU1@AAU1@@1@0ABUtMenu@@@Z 10020be0 f i Hex.obj
 0001:0001fc20       ?copy_backward@std@@YA?AV?$_Ptrit@UtMenu@@HPAU1@AAU1@PAU1@AAU1@@1@V21@00@Z 10020c20 f i Hex.obj
 0001:0001fc80       ?_Allocate@std@@YAPAUtMenu@@IPAU2@@Z 10020c80 f i Hex.obj
 0001:0001fca0       ?_Destroy_range@std@@YAXPAV?$basic_string@GU?$char_traits@G@std@@V?$allocator@G@2@@1@0AAV?$allocator@V?$basic_string@GU?$char_traits@G@std@@V?$allocator@G@2@@std@@@1@@Z 10020ca0 f i Hex.obj
 0001:0001fce0       ?_Ucopy@?$vector@V?$basic_string@GU?$char_traits@G@std@@V?$allocator@G@2@@std@@V?$allocator@V?$basic_string@GU?$char_traits@G@std@@V?$allocator@G@2@@std@@@2@@std@@IAEPAV?$basic_string@GU?$char_traits@G@std@@V?$allocator@G@2@@2@V?$_Ptrit@V?$basic_string@GU?$char_traits@G@std@@V?$allocator@G@2@@std@@HPAV12@AAV12@PAV12@AAV12@@2@0PAV32@@Z 10020ce0 f i Hex.obj
 0001:0001fd20       ?fill@std@@YAXV?$_Ptrit@V?$basic_string@GU?$char_traits@G@std@@V?$allocator@G@2@@std@@HPAV12@AAV12@PAV12@AAV12@@1@0ABV?$basic_string@GU?$char_traits@G@std@@V?$allocator@G@2@@1@@Z 10020d20 f i Hex.obj
 0001:0001fd60       ?copy_backward@std@@YA?AV?$_Ptrit@V?$basic_string@GU?$char_traits@G@std@@V?$allocator@G@2@@std@@HPAV12@AAV12@PAV12@AAV12@@1@V21@00@Z 10020d60 f i Hex.obj
 0001:0001fdc0       ?_Allocate@std@@YAPAV?$basic_string@GU?$char_traits@G@std@@V?$allocator@G@2@@1@IPAV21@@Z 10020dc0 f i Hex.obj
 0001:0001fde0       ?_Allocate@std@@YAPAGIPAG@Z 10020de0 f i Hex.obj
 0001:0001fe00       ??4tMenu@@QAEAAU0@ABU0@@Z  10020e00 f i Hex.obj
 0001:0001fe80       ??4?$vector@UtMenu@@V?$allocator@UtMenu@@@std@@@std@@QAEAAV01@ABV01@@Z 10020e80 f i Hex.obj
 0001:00020040       ??E?$_Ptrit@UtMenu@@HPAU1@AAU1@PAU1@AAU1@@std@@QAEAAV01@XZ 10021040 f i Hex.obj
 0001:00020040       ??E?$_Ptrit@UtMenu@@HPBU1@ABU1@PAU1@AAU1@@std@@QAEAAV01@XZ 10021040 f i Hex.obj
 0001:00020060       ??4?$basic_string@GU?$char_traits@G@std@@V?$allocator@G@2@@std@@QAEAAV01@ABV01@@Z 10021060 f i Hex.obj
 0001:00020080       ??E?$_Ptrit@V?$basic_string@GU?$char_traits@G@std@@V?$allocator@G@2@@std@@HPAV12@AAV12@PAV12@AAV12@@std@@QAEAAV01@XZ 10021080 f i Hex.obj
 0001:000200a0       ?assign@?$basic_string@GU?$char_traits@G@std@@V?$allocator@G@2@@std@@QAEAAV12@ABV12@@Z 100210a0 f i Hex.obj
 0001:000200c0       ?_Uninitialized_copy@std@@YAPAUtMenu@@V?$_Ptrit@UtMenu@@HPBU1@ABU1@PAU1@AAU1@@1@0PAU2@AAV?$allocator@UtMenu@@@1@@Z 100210c0 f i Hex.obj
 0001:00020100       ?_Uninit_fill_n@std@@YAXPAUtMenu@@IABU2@AAV?$allocator@UtMenu@@@1@U_Nonscalar_ptr_iterator_tag@1@@Z 10021100 f i Hex.obj
 0001:000201b0       ?_Uninit_fill_n@std@@YAXPAV?$basic_string@GU?$char_traits@G@std@@V?$allocator@G@2@@1@IABV21@AAV?$allocator@V?$basic_string@GU?$char_traits@G@std@@V?$allocator@G@2@@std@@@1@U_Nonscalar_ptr_iterator_tag@1@@Z 100211b0 f i Hex.obj
 0001:00020250       ?_Destroy_range@std@@YAXPAUtMenu@@0AAV?$allocator@UtMenu@@@1@U_Nonscalar_ptr_iterator_tag@1@@Z 10021250 f i Hex.obj
 0001:00020280       ?_Uninitialized_copy@std@@YAPAUtMenu@@V?$_Ptrit@UtMenu@@HPAU1@AAU1@PAU1@AAU1@@1@0PAU2@AAV?$allocator@UtMenu@@@1@@Z 10021280 f i Hex.obj
 0001:000202d0       ?_Copy_backward_opt@std@@YA?AV?$_Ptrit@UtMenu@@HPAU1@AAU1@PAU1@AAU1@@1@V21@00U_Nonscalar_ptr_iterator_tag@1@@Z 100212d0 f i Hex.obj
 0001:00020330       ?_Destroy_range@std@@YAXPAV?$basic_string@GU?$char_traits@G@std@@V?$allocator@G@2@@1@0AAV?$allocator@V?$basic_string@GU?$char_traits@G@std@@V?$allocator@G@2@@std@@@1@U_Nonscalar_ptr_iterator_tag@1@@Z 10021330 f i Hex.obj
 0001:00020360       ?_Uninitialized_copy@std@@YAPAV?$basic_string@GU?$char_traits@G@std@@V?$allocator@G@2@@1@V?$_Ptrit@V?$basic_string@GU?$char_traits@G@std@@V?$allocator@G@2@@std@@HPAV12@AAV12@PAV12@AAV12@@1@0PAV21@AAV?$allocator@V?$basic_string@GU?$char_traits@G@std@@V?$allocator@G@2@@std@@@1@@Z 10021360 f i Hex.obj
 0001:000203b0       ?_Copy_backward_opt@std@@YA?AV?$_Ptrit@V?$basic_string@GU?$char_traits@G@std@@V?$allocator@G@2@@std@@HPAV12@AAV12@PAV12@AAV12@@1@V21@00U_Nonscalar_ptr_iterator_tag@1@@Z 100213b0 f i Hex.obj
 0001:00020410       ?copy@std@@YAPAUtMenu@@V?$_Ptrit@UtMenu@@HPBU1@ABU1@PAU1@AAU1@@1@0PAU2@@Z 10021410 f i Hex.obj
 0001:00020450       ?construct@?$allocator@UtMenu@@@std@@QAEXPAUtMenu@@ABU3@@Z 10021450 f i Hex.obj
 0001:00020470       ?destroy@?$allocator@UtMenu@@@std@@QAEXPAUtMenu@@@Z 10021470 f i Hex.obj
 0001:00020490       ??F?$_Ptrit@UtMenu@@HPAU1@AAU1@PAU1@AAU1@@std@@QAEAAV01@XZ 10021490 f i Hex.obj
 0001:000204b0       ?construct@?$allocator@V?$basic_string@GU?$char_traits@G@std@@V?$allocator@G@2@@std@@@std@@QAEXPAV?$basic_string@GU?$char_traits@G@std@@V?$allocator@G@2@@2@ABV32@@Z 100214b0 f i Hex.obj
 0001:000204d0       ?destroy@?$allocator@V?$basic_string@GU?$char_traits@G@std@@V?$allocator@G@2@@std@@@std@@QAEXPAV?$basic_string@GU?$char_traits@G@std@@V?$allocator@G@2@@2@@Z 100214d0 f i Hex.obj
 0001:000204f0       ??F?$_Ptrit@V?$basic_string@GU?$char_traits@G@std@@V?$allocator@G@2@@std@@HPAV12@AAV12@PAV12@AAV12@@std@@QAEAAV01@XZ 100214f0 f i Hex.obj
 0001:00020510       ?_Uninit_copy@std@@YAPAUtMenu@@V?$_Ptrit@UtMenu@@HPBU1@ABU1@PAU1@AAU1@@1@0PAU2@AAV?$allocator@UtMenu@@@1@U_Nonscalar_ptr_iterator_tag@1@@Z 10021510 f i Hex.obj
 0001:00020510       ?_Uninit_copy@std@@YAPAUtMenu@@V?$_Ptrit@UtMenu@@HPAU1@AAU1@PAU1@AAU1@@1@0PAU2@AAV?$allocator@UtMenu@@@1@U_Nonscalar_ptr_iterator_tag@1@@Z 10021510 f i Hex.obj
 0001:000205e0       ?_Ptr_cat@std@@YA?AU_Nonscalar_ptr_iterator_tag@1@ABV?$_Ptrit@UtMenu@@HPAU1@AAU1@PAU1@AAU1@@1@AAV31@@Z 100215e0 f i Hex.obj
 0001:000205e0       ?_Ptr_cat@std@@YA?AU_Nonscalar_ptr_iterator_tag@1@ABV?$_Ptrit@UtHexProp@@HPAU1@AAU1@PAU1@AAU1@@1@AAV31@@Z 100215e0 f i HEXDialog.obj
 0001:000205e0       ?_Ptr_cat@std@@YA?AU_Nonscalar_ptr_iterator_tag@1@ABV?$_Ptrit@V?$basic_string@GU?$char_traits@G@std@@V?$allocator@G@2@@std@@HPAV12@AAV12@PAV12@AAV12@@1@AAPAV?$basic_string@GU?$char_traits@G@std@@V?$allocator@G@2@@1@@Z 100215e0 f i Hex.obj
 0001:000205e0       ?_Ptr_cat@std@@YA?AU_Nonscalar_ptr_iterator_tag@1@ABV?$_Ptrit@UtBkMk@@HPAU1@AAU1@PAU1@AAU1@@1@AAPAUtBkMk@@@Z 100215e0 f i HEXDialog.obj
 0001:000205e0       ?_Ptr_cat@std@@YA?AU_Nonscalar_ptr_iterator_tag@1@ABV?$_Ptrit@TtEncComboInfo@@HPAT1@AAT1@PAT1@AAT1@@1@AAV31@@Z 100215e0 f i MultiTypeCombo.obj
 0001:000205e0       ?_Ptr_cat@std@@YA?AU_Nonscalar_ptr_iterator_tag@1@ABV?$_Ptrit@TtEncComboInfo@@HPAT1@AAT1@PAT1@AAT1@@1@AAPATtEncComboInfo@@@Z 100215e0 f i MultiTypeCombo.obj
 0001:000205e0       ?_Ptr_cat@std@@YA?AU_Nonscalar_ptr_iterator_tag@1@ABQAUtBkMk@@AAPAU3@@Z 100215e0 f i CompareDialog.obj
 0001:000205e0       ?_Ptr_cat@std@@YA?AU_Nonscalar_ptr_iterator_tag@1@ABV?$_Ptrit@V?$basic_string@GU?$char_traits@G@std@@V?$allocator@G@2@@std@@HPAV12@AAV12@PAV12@AAV12@@1@AAV31@@Z 100215e0 f i Hex.obj
 0001:000205e0       ?_Ptr_cat@std@@YA?AU_Nonscalar_ptr_iterator_tag@1@ABV?$_Ptrit@UtBkMk@@HPBU1@ABU1@PAU1@AAU1@@1@AAPAUtBkMk@@@Z 100215e0 f i CompareDialog.obj
 0001:000205e0       ?_Ptr_cat@std@@YA?AU_Nonscalar_ptr_iterator_tag@1@ABV?$_Ptrit@UtHexProp@@HPAU1@AAU1@PAU1@AAU1@@1@AAPAUtHexProp@@@Z 100215e0 f i HEXDialog.obj
 0001:000205e0       ?_Ptr_cat@std@@YA?AU_Nonscalar_ptr_iterator_tag@1@ABV?$_Ptrit@UtMenu@@HPAU1@AAU1@PAU1@AAU1@@1@AAPAUtMenu@@@Z 100215e0 f i Hex.obj
 0001:000205e0       ?_Ptr_cat@std@@YA?AU_Nonscalar_ptr_iterator_tag@1@ABV?$_Ptrit@UtMenu@@HPBU1@ABU1@PAU1@AAU1@@1@AAPAUtMenu@@@Z 100215e0 f i Hex.obj
 0001:000205e0       ?_Ptr_cat@std@@YA?AU_Nonscalar_ptr_iterator_tag@1@ABQAUtMenu@@AAPAU3@@Z 100215e0 f i Hex.obj
 0001:000205e0       ?_Ptr_cat@std@@YA?AU_Nonscalar_ptr_iterator_tag@1@ABQAUtHexProp@@AAPAU3@@Z 100215e0 f i HEXDialog.obj
 0001:000205e0       ?_Ptr_cat@std@@YA?AU_Nonscalar_ptr_iterator_tag@1@ABV?$_Ptrit@UtBkMk@@HPAU1@AAU1@PAU1@AAU1@@1@AAV31@@Z 100215e0 f i HEXDialog.obj
 0001:000205e0       ?_Ptr_cat@std@@YA?AU_Nonscalar_ptr_iterator_tag@1@ABV?$_Ptrit@UtHexProp@@HPBU1@ABU1@PAU1@AAU1@@1@AAPAUtHexProp@@@Z 100215e0 f i HEXDialog.obj
 0001:000205e0       ?_Ptr_cat@std@@YA?AU_Nonscalar_ptr_iterator_tag@1@ABQATtEncComboInfo@@AAPAT3@@Z 100215e0 f i MultiTypeCombo.obj
 0001:000205e0       ?_Ptr_cat@std@@YA?AU_Nonscalar_ptr_iterator_tag@1@ABQAV?$basic_string@GU?$char_traits@G@std@@V?$allocator@G@2@@1@AAPAV31@@Z 100215e0 f i Hex.obj
 0001:000205f0       ?_Uninit_copy@std@@YAPAV?$basic_string@GU?$char_traits@G@std@@V?$allocator@G@2@@1@V?$_Ptrit@V?$basic_string@GU?$char_traits@G@std@@V?$allocator@G@2@@std@@HPAV12@AAV12@PAV12@AAV12@@1@0PAV21@AAV?$allocator@V?$basic_string@GU?$char_traits@G@std@@V?$allocator@G@2@@std@@@1@U_Nonscalar_ptr_iterator_tag@1@@Z 100215f0 f i Hex.obj
 0001:000206c0       ?_Copy_opt@std@@YAPAUtMenu@@V?$_Ptrit@UtMenu@@HPBU1@ABU1@PAU1@AAU1@@1@0PAU2@U_Nonscalar_ptr_iterator_tag@1@@Z 100216c0 f i Hex.obj
 0001:00020710       ?_Construct@std@@YAXPAUtMenu@@ABU2@@Z 10021710 f i Hex.obj
 0001:00020780       ?_Destroy@std@@YAXPAUtMenu@@@Z 10021780 f i Hex.obj
 0001:00020790       ?_Construct@std@@YAXPAV?$basic_string@GU?$char_traits@G@std@@V?$allocator@G@2@@1@ABV21@@Z 10021790 f i Hex.obj
 0001:00020800       ?_Destroy@std@@YAXPAV?$basic_string@GU?$char_traits@G@std@@V?$allocator@G@2@@1@@Z 10021800 f i Hex.obj
 0001:00020810       ??_GtMenu@@QAEPAXI@Z       10021810 f i Hex.obj
 0001:00020840       ??_G?$basic_string@GU?$char_traits@G@std@@V?$allocator@G@2@@std@@QAEPAXI@Z 10021840 f i Hex.obj
 0001:00020870       ??0MultiTypeCombo@@QAE@XZ  10021870 f   MultiTypeCombo.obj
 0001:00020900       ?destroy@ColorCombo@@UAEXXZ 10021900 f i Hex.obj
 0001:00020900       ?destroy@MultiTypeCombo@@UAEXXZ 10021900 f i MultiTypeCombo.obj
 0001:00020900       ?destroy@ColorPopup@@UAEXXZ 10021900 f i ColorCombo.obj
 0001:00020920       ??_GMultiTypeCombo@@UAEPAXI@Z 10021920 f i MultiTypeCombo.obj
 0001:00020920       ??_EMultiTypeCombo@@UAEPAXI@Z 10021920 f i MultiTypeCombo.obj
 0001:00020950       ??1MultiTypeCombo@@UAE@XZ  10021950 f i MultiTypeCombo.obj
 0001:000209b0       ?init@MultiTypeCombo@@UAEXPAUHWND__@@0@Z 100219b0 f   MultiTypeCombo.obj
 0001:00020a40       ?wndDefaultProc@MultiTypeCombo@@CGJPAUHWND__@@IIJ@Z 10021a40 f i MultiTypeCombo.obj
 0001:00020a70       ?runProc@MultiTypeCombo@@AAEJPAUHWND__@@IIJ@Z 10021a70 f   MultiTypeCombo.obj
 0001:00020c20       ?addText@MultiTypeCombo@@QAEXUtComboInfo@@@Z 10021c20 f   MultiTypeCombo.obj
 0001:00020d80       ?setText@MultiTypeCombo@@QAEXUtComboInfo@@@Z 10021d80 f   MultiTypeCombo.obj
 0001:00020db0       ?getText@MultiTypeCombo@@QAEXPAUtComboInfo@@@Z 10021db0 f   MultiTypeCombo.obj
 0001:00020df0       ?setCodingType@MultiTypeCombo@@QAE?AW4eCodingType@@W42@@Z 10021df0 f   MultiTypeCombo.obj
 0001:00020f60       ?setDocCodePage@MultiTypeCombo@@QAEXW4eNppCoding@@@Z 10021f60 f   MultiTypeCombo.obj
 0001:00020f80       ?setComboText@MultiTypeCombo@@AAEHUtComboInfo@@I@Z 10021f80 f   MultiTypeCombo.obj
 0001:00020fe0       ?setComboText@MultiTypeCombo@@AAEHTtEncComboInfo@@I@Z 10021fe0 f   MultiTypeCombo.obj
 0001:00021080       ?getComboText@MultiTypeCombo@@AAEXPAD@Z 10022080 f   MultiTypeCombo.obj
 0001:000210d0       ?selectComboText@MultiTypeCombo@@AAEXTtEncComboInfo@@@Z 100220d0 f   MultiTypeCombo.obj
 0001:00021160       ?decode@MultiTypeCombo@@AAEXPAUtComboInfo@@W4eCodingType@@@Z 10022160 f   MultiTypeCombo.obj
 0001:000217a0       ?disableBOM@Utf8_16_Write@@QAEXXZ 100227a0 f i MultiTypeCombo.obj
 0001:000217c0       ?encode@MultiTypeCombo@@AAEXPAUtComboInfo@@W4eCodingType@@@Z 100227c0 f   MultiTypeCombo.obj
 0001:00021820       ?encode@MultiTypeCombo@@AAEXPATtEncComboInfo@@W4eCodingType@@@Z 10022820 f   MultiTypeCombo.obj
 0001:00021b30       ?getNewBuf@Utf8_16_Read@@QAEPADXZ 10022b30 f i MultiTypeCombo.obj
 0001:00021b50       ?noBOM@Utf8_16_Read@@QAEXXZ 10022b50 f i MultiTypeCombo.obj
 0001:00021b70       ??0?$vector@TtEncComboInfo@@V?$allocator@TtEncComboInfo@@@std@@@std@@QAE@XZ 10022b70 f i MultiTypeCombo.obj
 0001:00021ba0       ?size@?$vector@TtEncComboInfo@@V?$allocator@TtEncComboInfo@@@std@@@std@@QBEIXZ 10022ba0 f i MultiTypeCombo.obj
 0001:00021be0       ??A?$vector@TtEncComboInfo@@V?$allocator@TtEncComboInfo@@@std@@@std@@QAEAATtEncComboInfo@@I@Z 10022be0 f i MultiTypeCombo.obj
 0001:00021c20       ?push_back@?$vector@TtEncComboInfo@@V?$allocator@TtEncComboInfo@@@std@@@std@@QAEXABTtEncComboInfo@@@Z 10022c20 f i MultiTypeCombo.obj
 0001:00021c80       ??1?$vector@TtEncComboInfo@@V?$allocator@TtEncComboInfo@@@std@@@std@@QAE@XZ 10022c80 f i MultiTypeCombo.obj
 0001:00021c80       ?clear@?$vector@TtEncComboInfo@@V?$allocator@TtEncComboInfo@@@std@@@std@@QAEXXZ 10022c80 f i MultiTypeCombo.obj
 0001:00021ca0       ?capacity@?$vector@TtEncComboInfo@@V?$allocator@TtEncComboInfo@@@std@@@std@@QBEIXZ 10022ca0 f i MultiTypeCombo.obj
 0001:00021ce0       ?insert@?$vector@TtEncComboInfo@@V?$allocator@TtEncComboInfo@@@std@@@std@@QAE?AV?$_Ptrit@TtEncComboInfo@@HPAT1@AAT1@PAT1@AAT1@@2@V32@ABTtEncComboInfo@@@Z 10022ce0 f i MultiTypeCombo.obj
 0001:00021d60       ?_Buy@?$vector@TtEncComboInfo@@V?$allocator@TtEncComboInfo@@@std@@@std@@IAE_NI@Z 10022d60 f i MultiTypeCombo.obj
 0001:00021df0       ?_Tidy@?$vector@TtEncComboInfo@@V?$allocator@TtEncComboInfo@@@std@@@std@@IAEXXZ 10022df0 f i MultiTypeCombo.obj
 0001:00021e60       ?_Ufill@?$vector@TtEncComboInfo@@V?$allocator@TtEncComboInfo@@@std@@@std@@IAEPATtEncComboInfo@@PAT3@IABT3@@Z 10022e60 f i MultiTypeCombo.obj
 0001:00021ea0       ??H?$_Ptrit@TtEncComboInfo@@HPAT1@AAT1@PAT1@AAT1@@std@@QBE?AV01@H@Z 10022ea0 f i MultiTypeCombo.obj
 0001:00021ed0       ?max_size@?$vector@TtEncComboInfo@@V?$allocator@TtEncComboInfo@@@std@@@std@@QBEIXZ 10022ed0 f i MultiTypeCombo.obj
 0001:00021ef0       ?_Destroy@?$vector@TtEncComboInfo@@V?$allocator@TtEncComboInfo@@@std@@@std@@IAEXPATtEncComboInfo@@0@Z 10022ef0 f i MultiTypeCombo.obj
 0001:00021f20       ?_Insert_n@?$vector@TtEncComboInfo@@V?$allocator@TtEncComboInfo@@@std@@@std@@IAEXV?$_Ptrit@TtEncComboInfo@@HPAT1@AAT1@PAT1@AAT1@@2@IABTtEncComboInfo@@@Z 10022f20 f i MultiTypeCombo.obj
 0001:000224a0       ?_Xlen@?$vector@TtEncComboInfo@@V?$allocator@TtEncComboInfo@@@std@@@std@@IBEXXZ 100234a0 f i MultiTypeCombo.obj
 0001:00022500       ??0?$allocator@V?$basic_string@GU?$char_traits@G@std@@V?$allocator@G@2@@std@@@std@@QAE@ABV01@@Z 10023500 f i Hex.obj
 0001:00022500       ??0?$allocator@G@std@@QAE@ABV01@@Z 10023500 f i Hex.obj
 0001:00022500       ??0?$allocator@TtEncComboInfo@@@std@@QAE@ABV01@@Z 10023500 f i MultiTypeCombo.obj
 0001:00022500       ??0?$allocator@UtMenu@@@std@@QAE@ABV01@@Z 10023500 f i Hex.obj
 0001:00022500       ??0?$allocator@D@std@@QAE@ABV01@@Z 10023500 f i CompareDialog.obj
 0001:00022500       ??0?$allocator@UtHexProp@@@std@@QAE@ABV01@@Z 10023500 f i HEXDialog.obj
 0001:00022500       ??0?$allocator@UtBkMk@@@std@@QAE@ABV01@@Z 10023500 f i CompareDialog.obj
 0001:00022510       ?allocate@?$allocator@TtEncComboInfo@@@std@@QAEPATtEncComboInfo@@IPBX@Z 10023510 f i MultiTypeCombo.obj
 0001:00022530       ??0?$_Ptrit@UtMenu@@HPBU1@ABU1@PAU1@AAU1@@std@@QAE@PBUtMenu@@@Z 10023530 f i Hex.obj
 0001:00022530       ??0?$_Ptrit@UtHexProp@@HPAU1@AAU1@PAU1@AAU1@@std@@QAE@PAUtHexProp@@@Z 10023530 f i HEXDialog.obj
 0001:00022530       ??0?$_Ptrit@UtMenu@@HPAU1@AAU1@PAU1@AAU1@@std@@QAE@PAUtMenu@@@Z 10023530 f i Hex.obj
 0001:00022530       ??0?$_Ptrit@UtBkMk@@HPBU1@ABU1@PAU1@AAU1@@std@@QAE@PBUtBkMk@@@Z 10023530 f i CompareDialog.obj
 0001:00022530       ??0?$_Ptrit@UtBkMk@@HPAU1@AAU1@PAU1@AAU1@@std@@QAE@PAUtBkMk@@@Z 10023530 f i HEXDialog.obj
 0001:00022530       ??0?$_Ptrit@TtEncComboInfo@@HPAT1@AAT1@PAT1@AAT1@@std@@QAE@PATtEncComboInfo@@@Z 10023530 f i MultiTypeCombo.obj
 0001:00022530       ??0?$_Ptrit@UtHexProp@@HPBU1@ABU1@PAU1@AAU1@@std@@QAE@PBUtHexProp@@@Z 10023530 f i HEXDialog.obj
 0001:00022530       ??0?$_Ptrit@V?$basic_string@GU?$char_traits@G@std@@V?$allocator@G@2@@std@@HPAV12@AAV12@PAV12@AAV12@@std@@QAE@PAV?$basic_string@GU?$char_traits@G@std@@V?$allocator@G@2@@1@@Z 10023530 f i Hex.obj
 0001:00022550       ??G?$_Ptrit@TtEncComboInfo@@HPAT1@AAT1@PAT1@AAT1@@std@@QBEHABV01@@Z 10023550 f i MultiTypeCombo.obj
 0001:00022570       ?max_size@?$allocator@TtEncComboInfo@@@std@@QBEIXZ 10023570 f i MultiTypeCombo.obj
 0001:000225a0       ??G?$_Ptrit@TtEncComboInfo@@HPAT1@AAT1@PAT1@AAT1@@std@@QBE?AV01@H@Z 100235a0 f i MultiTypeCombo.obj
 0001:000225d0       ?_Uninitialized_fill_n@std@@YAXPATtEncComboInfo@@IABT2@AAV?$allocator@TtEncComboInfo@@@1@@Z 100235d0 f i MultiTypeCombo.obj
 0001:00022610       ?_Destroy_range@std@@YAXPATtEncComboInfo@@0AAV?$allocator@TtEncComboInfo@@@1@@Z 10023610 f i MultiTypeCombo.obj
 0001:00022650       ?_Ucopy@?$vector@TtEncComboInfo@@V?$allocator@TtEncComboInfo@@@std@@@std@@IAEPATtEncComboInfo@@V?$_Ptrit@TtEncComboInfo@@HPAT1@AAT1@PAT1@AAT1@@2@0PAT3@@Z 10023650 f i MultiTypeCombo.obj
 0001:00022690       ?fill@std@@YAXV?$_Ptrit@TtEncComboInfo@@HPAT1@AAT1@PAT1@AAT1@@1@0ABTtEncComboInfo@@@Z 10023690 f i MultiTypeCombo.obj
 0001:000226d0       ?copy_backward@std@@YA?AV?$_Ptrit@TtEncComboInfo@@HPAT1@AAT1@PAT1@AAT1@@1@V21@00@Z 100236d0 f i MultiTypeCombo.obj
 0001:00022730       ?_Allocate@std@@YAPATtEncComboInfo@@IPAT2@@Z 10023730 f i MultiTypeCombo.obj
 0001:00022750       ??E?$_Ptrit@TtEncComboInfo@@HPAT1@AAT1@PAT1@AAT1@@std@@QAEAAV01@XZ 10023750 f i MultiTypeCombo.obj
 0001:00022770       ??9?$_Ptrit@V?$basic_string@GU?$char_traits@G@std@@V?$allocator@G@2@@std@@HPAV12@AAV12@PAV12@AAV12@@std@@QBE_NABV01@@Z 10023770 f i Hex.obj
 0001:00022770       ??9?$_Ptrit@TtEncComboInfo@@HPAT1@AAT1@PAT1@AAT1@@std@@QBE_NABV01@@Z 10023770 f i MultiTypeCombo.obj
 0001:00022770       ??9?$_Ptrit@UtBkMk@@HPBU1@ABU1@PAU1@AAU1@@std@@QBE_NABV01@@Z 10023770 f i CompareDialog.obj
 0001:00022770       ??9?$_Ptrit@UtHexProp@@HPAU1@AAU1@PAU1@AAU1@@std@@QBE_NABV01@@Z 10023770 f i HEXDialog.obj
 0001:00022770       ??9?$_Ptrit@UtMenu@@HPBU1@ABU1@PAU1@AAU1@@std@@QBE_NABV01@@Z 10023770 f i Hex.obj
 0001:00022770       ??9?$_Ptrit@UtBkMk@@HPAU1@AAU1@PAU1@AAU1@@std@@QBE_NABV01@@Z 10023770 f i HEXDialog.obj
 0001:00022770       ??9?$_Ptrit@UtMenu@@HPAU1@AAU1@PAU1@AAU1@@std@@QBE_NABV01@@Z 10023770 f i Hex.obj
 0001:00022770       ??9?$_Ptrit@UtHexProp@@HPBU1@ABU1@PAU1@AAU1@@std@@QBE_NABV01@@Z 10023770 f i HEXDialog.obj
 0001:000227a0       ??8?$_Ptrit@UtMenu@@HPBU1@ABU1@PAU1@AAU1@@std@@QBE_NABV01@@Z 100237a0 f i Hex.obj
 0001:000227a0       ??8?$_Ptrit@UtMenu@@HPAU1@AAU1@PAU1@AAU1@@std@@QBE_NABV01@@Z 100237a0 f i Hex.obj
 0001:000227a0       ??8?$_Ptrit@UtBkMk@@HPAU1@AAU1@PAU1@AAU1@@std@@QBE_NABV01@@Z 100237a0 f i HEXDialog.obj
 0001:000227a0       ??8?$_Ptrit@UtBkMk@@HPBU1@ABU1@PAU1@AAU1@@std@@QBE_NABV01@@Z 100237a0 f i CompareDialog.obj
 0001:000227a0       ??8?$_Ptrit@TtEncComboInfo@@HPAT1@AAT1@PAT1@AAT1@@std@@QBE_NABV01@@Z 100237a0 f i MultiTypeCombo.obj
 0001:000227a0       ??8?$_Ptrit@UtHexProp@@HPBU1@ABU1@PAU1@AAU1@@std@@QBE_NABV01@@Z 100237a0 f i HEXDialog.obj
 0001:000227a0       ??8?$_Ptrit@V?$basic_string@GU?$char_traits@G@std@@V?$allocator@G@2@@std@@HPAV12@AAV12@PAV12@AAV12@@std@@QBE_NABV01@@Z 100237a0 f i Hex.obj
 0001:000227a0       ??8?$_Ptrit@UtHexProp@@HPAU1@AAU1@PAU1@AAU1@@std@@QBE_NABV01@@Z 100237a0 f i HEXDialog.obj
 0001:000227c0       ?_Uninit_fill_n@std@@YAXPATtEncComboInfo@@IABT2@AAV?$allocator@TtEncComboInfo@@@1@U_Nonscalar_ptr_iterator_tag@1@@Z 100237c0 f i MultiTypeCombo.obj
 0001:00022870       ?_Destroy_range@std@@YAXPATtEncComboInfo@@0AAV?$allocator@TtEncComboInfo@@@1@U_Nonscalar_ptr_iterator_tag@1@@Z 10023870 f i MultiTypeCombo.obj
 0001:000228a0       ?_Uninitialized_copy@std@@YAPATtEncComboInfo@@V?$_Ptrit@TtEncComboInfo@@HPAT1@AAT1@PAT1@AAT1@@1@0PAT2@AAV?$allocator@TtEncComboInfo@@@1@@Z 100238a0 f i MultiTypeCombo.obj
 0001:000228f0       ?_Copy_backward_opt@std@@YA?AV?$_Ptrit@TtEncComboInfo@@HPAT1@AAT1@PAT1@AAT1@@1@V21@00U_Nonscalar_ptr_iterator_tag@1@@Z 100238f0 f i MultiTypeCombo.obj
 0001:00022950       ?construct@?$allocator@TtEncComboInfo@@@std@@QAEXPATtEncComboInfo@@ABT3@@Z 10023950 f i MultiTypeCombo.obj
 0001:00022970       ??F?$_Ptrit@TtEncComboInfo@@HPAT1@AAT1@PAT1@AAT1@@std@@QAEAAV01@XZ 10023970 f i MultiTypeCombo.obj
 0001:00022990       ?_Uninit_copy@std@@YAPATtEncComboInfo@@V?$_Ptrit@TtEncComboInfo@@HPAT1@AAT1@PAT1@AAT1@@1@0PAT2@AAV?$allocator@TtEncComboInfo@@@1@U_Nonscalar_ptr_iterator_tag@1@@Z 10023990 f i MultiTypeCombo.obj
 0001:00022a60       ?_Construct@std@@YAXPATtEncComboInfo@@ABT2@@Z 10023a60 f i MultiTypeCombo.obj
 0001:00022ab0       ?doDialog@OptionDlg@@QAEIPAUtProp@@@Z 10023ab0 f   OptionDialog.obj
 0001:00022af0       ?run_dlgProc@OptionDlg@@MAGHPAUHWND__@@IIJ@Z 10023af0 f   OptionDialog.obj
 0001:000232d0       ?onSelect@ColorCombo@@QAEXXZ 100242d0 f i OptionDialog.obj
 0001:000233e0       ?TabUpdate@OptionDlg@@IAEXXZ 100243e0 f   OptionDialog.obj
 0001:00023920       ?SetParams@OptionDlg@@IAEXXZ 10024920 f   OptionDialog.obj
 0001:00023dc0       ?GetParams@OptionDlg@@IAEHXZ 10024dc0 f   OptionDialog.obj
 0001:00024400       ?getColor@ColorCombo@@QAEXPAK@Z 10025400 f i OptionDialog.obj
 0001:00024420       ?at@?$vector@V?$basic_string@GU?$char_traits@G@std@@V?$allocator@G@2@@std@@V?$allocator@V?$basic_string@GU?$char_traits@G@std@@V?$allocator@G@2@@std@@@2@@std@@QAEAAV?$basic_string@GU?$char_traits@G@std@@V?$allocator@G@2@@2@I@Z 10025420 f i OptionDialog.obj
 0001:00024470       ?_Xran@?$vector@V?$basic_string@GU?$char_traits@G@std@@V?$allocator@G@2@@std@@V?$allocator@V?$basic_string@GU?$char_traits@G@std@@V?$allocator@G@2@@std@@@2@@std@@IBEXXZ 10025470 f i OptionDialog.obj
 0001:000244d0       ??0out_of_range@std@@QAE@ABV?$basic_string@DU?$char_traits@D@std@@V?$allocator@D@2@@1@@Z 100254d0 f i OptionDialog.obj
 0001:00024500       ??1out_of_range@std@@UAE@XZ 10025500 f i OptionDialog.obj
 0001:00024520       ??_Gout_of_range@std@@UAEPAXI@Z 10025520 f i OptionDialog.obj
 0001:00024520       ??_Eout_of_range@std@@UAEPAXI@Z 10025520 f i OptionDialog.obj
 0001:00024550       ??0out_of_range@std@@QAE@ABV01@@Z 10025550 f i OptionDialog.obj
 0001:00024580       ?patternReplace@PatternDlg@@QAEXPAUHWND__@@@Z 10025580 f   PatternDialog.obj
 0001:00024730       ?insertColumns@PatternDlg@@QAEXPAUHWND__@@@Z 10025730 f   PatternDialog.obj
 0001:00024820       ?doDialog@PatternDlg@@IAEXPAUHWND__@@@Z 10025820 f   PatternDialog.obj
 0001:000248a0       ?run_dlgProc@PatternDlg@@MAGHPAUHWND__@@IIJ@Z 100258a0 f   PatternDialog.obj
 0001:00024b00       ?onInsert@PatternDlg@@IAEHXZ 10025b00 f   PatternDialog.obj
 0001:00025160       ?onReplace@PatternDlg@@IAEHXZ 10026160 f   PatternDialog.obj
 0001:000256c0       ?create@URLCtrl@@QAEXPAUHWND__@@PAGK@Z 100266c0 f   URLCtrl.obj
 0001:00025750       ?URLCtrlProc@URLCtrl@@CGJPAUHWND__@@IIJ@Z 10026750 f i URLCtrl.obj
 0001:00025780       ?runProc@URLCtrl@@AAEJPAUHWND__@@IIJ@Z 10026780 f   URLCtrl.obj
 0001:00025b30       ??0Utf8_16_Read@@QAE@XZ    10026b30 f   Utf8_16.obj
 0001:00025b70       ??1Utf8_16_Read@@QAE@XZ    10026b70 f   Utf8_16.obj
 0001:00025bb0       ?isUTF8_16@Utf8_16_Read@@IAEHXZ 10026bb0 f   Utf8_16.obj
 0001:00025d40       ?convert@Utf8_16_Read@@QAEIPADI@Z 10026d40 f   Utf8_16.obj
 0001:00025f10       ?get@Utf16_Iter@@QBEEXZ    10026f10 f i Utf8_16.obj
 0001:00025f30       ??BUtf16_Iter@@QAE_NXZ     10026f30 f i Utf8_16.obj
 0001:00025f30       ??BUtf8_Iter@@QAE_NXZ      10026f30 f i Utf8_16.obj
 0001:00025f50       ?determineEncoding@Utf8_16_Read@@IAEXXZ 10026f50 f   Utf8_16.obj
 0001:00026090       ??0Utf8_16_Write@@QAE@XZ   10027090 f   Utf8_16.obj
 0001:000260e0       ??1Utf8_16_Write@@QAE@XZ   100270e0 f   Utf8_16.obj
 0001:00026100       ?get@Utf8_Iter@@QBEGXZ     10027100 f i Utf8_16.obj
 0001:00026120       ?canGet@Utf8_Iter@@QBE_NXZ 10027120 f i Utf8_16.obj
 0001:00026140       ?convert@Utf8_16_Write@@QAEIPADI@Z 10027140 f   Utf8_16.obj
 0001:00026380       ?forceEncoding@Utf8_16_Read@@QAEXW4encodingType@Utf8_16@@@Z 10027380 f   Utf8_16.obj
 0001:00026380       ?setEncoding@Utf8_16_Write@@QAEXW4encodingType@Utf8_16@@@Z 10027380 f   Utf8_16.obj
 0001:000263a0       ?fclose@Utf8_16_Write@@QAEXXZ 100273a0 f   Utf8_16.obj
 0001:000263f0       ??0Utf8_Iter@@QAE@XZ       100273f0 f   Utf8_16.obj
 0001:00026410       ?reset@Utf8_Iter@@QAEXXZ   10027410 f   Utf8_16.obj
 0001:00026460       ?set@Utf8_Iter@@QAEXPBEIW4encodingType@Utf8_16@@@Z 10027460 f   Utf8_16.obj
 0001:000264a0       ??EUtf8_Iter@@QAEXXZ       100274a0 f   Utf8_16.obj
 0001:000265d0       ?toStart@Utf8_Iter@@IAEXXZ 100275d0 f   Utf8_16.obj
 0001:00026600       ?swap@Utf8_Iter@@IAEXXZ    10027600 f   Utf8_16.obj
 0001:00026640       ??0Utf16_Iter@@QAE@XZ      10027640 f   Utf8_16.obj
 0001:00026660       ?reset@Utf16_Iter@@QAEXXZ  10027660 f   Utf8_16.obj
 0001:000266b0       ?set@Utf16_Iter@@QAEXPBEIW4encodingType@Utf8_16@@@Z 100276b0 f   Utf8_16.obj
 0001:00026700       ??EUtf16_Iter@@QAEXXZ      10027700 f   Utf8_16.obj
 0001:000268a0       ?goToCenter@StaticDialog@@QAEXXZ 100278a0 f   StaticDialog1.obj
 0001:00026960       ?display@StaticDialog@@UBEX_N@Z 10027960 f   StaticDialog1.obj
 0001:00026a80       ?makeRTLResource@StaticDialog@@IAEPAXHPAPAUDLGTEMPLATE@@@Z 10027a80 f   StaticDialog1.obj
 0001:00026b60       ?create@StaticDialog@@UAEXH_N0@Z 10027b60 f   StaticDialog1.obj
 0001:00026c50       ?dlgProc@StaticDialog@@KGHPAUHWND__@@IIJ@Z 10027c50 f   StaticDialog1.obj
 0001:00026d00       ??0WcharMbcsConvertor@@IAE@XZ 10027d00 f i SysMsg1.obj
 0001:00026d40       ?systemMessage@@YAXPBG@Z   10027d40 f   SysMsg1.obj
 0001:00026d85       ??2@YAPAXI@Z               10027d85 f   libcpmt:newop.obj
 0001:00026da9       ?_Xran@_String_base@std@@QBEXXZ 10027da9 f   libcpmt:string.obj
 0001:00026de9       ?_Xlen@_String_base@std@@QBEXXZ 10027de9 f   libcpmt:string.obj
 0001:00026e29       ??_U@YAPAXI@Z              10027e29 f   libcpmt:newaop.obj
 0001:00026e2e       ??1bad_alloc@std@@UAE@XZ   10027e2e f i libcpmt:nomemory.obj
 0001:00026e39       ??_Gbad_alloc@std@@UAEPAXI@Z 10027e39 f i libcpmt:nomemory.obj
 0001:00026e39       ??_Ebad_alloc@std@@UAEPAXI@Z 10027e39 f i libcpmt:nomemory.obj
 0001:00026e55       ??0bad_alloc@std@@QAE@ABV01@@Z 10027e55 f i libcpmt:nomemory.obj
 0001:00026e6d       ?_Nomemory@std@@YAXXZ      10027e6d f   libcpmt:nomemory.obj
 0001:00026ece       ??3@YAXPAX@Z               10027ece f   LIBCMT:delete.obj
 0001:00026ed3       ?_JumpToContinuation@@YGXPAXPAUEHRegistrationNode@@@Z 10027ed3 f   LIBCMT:trnsctrl.obj
 0001:00026f03       ?_CallMemberFunction1@@YGXPAX00@Z 10027f03 f   LIBCMT:trnsctrl.obj
 0001:00026f03       ?_CallMemberFunction2@@YGXPAX00H@Z 10027f03 f   LIBCMT:trnsctrl.obj
 0001:00026f03       ?_CallMemberFunction0@@YGXPAX0@Z 10027f03 f   LIBCMT:trnsctrl.obj
 0001:00026f0a       ?_UnwindNestedFrames@@YGXPAUEHRegistrationNode@@PAUEHExceptionRecord@@@Z 10027f0a f   LIBCMT:trnsctrl.obj
 0001:00026f5c       ___CxxFrameHandler         10027f5c f   LIBCMT:trnsctrl.obj
 0001:00027027       ?_GetRangeOfTrysToCheck@@YAPBU_s_TryBlockMapEntry@@PBU_s_FuncInfo@@HHPAI1@Z 10028027 f   LIBCMT:trnsctrl.obj
 0001:000270a1       ?_CreateFrameInfo@@YAPAUFrameInfo@@PAU1@PAX@Z 100280a1 f   LIBCMT:trnsctrl.obj
 0001:000270c9       ?IsExceptionObjectToBeDestroyed@@YAHPAX@Z 100280c9 f   LIBCMT:trnsctrl.obj
 0001:000270ea       ?_FindAndUnlinkFrame@@YAXPAUFrameInfo@@@Z 100280ea f   LIBCMT:trnsctrl.obj
 0001:00027136       ?_CallCatchBlock2@@YAPAXPAUEHRegistrationNode@@PBU_s_FuncInfo@@PAXHK@Z 10028136 f   LIBCMT:trnsctrl.obj
 0001:00027187       ?_CallSETranslator@@YAHPAUEHExceptionRecord@@PAUEHRegistrationNode@@PAX2PBU_s_FuncInfo@@H1@Z 10028187 f   LIBCMT:trnsctrl.obj
 0001:00027238       __global_unwind2           10028238 f   LIBCMT:exsup.obj
 0001:0002727a       __local_unwind2            1002827a f   LIBCMT:exsup.obj
 0001:000272d2       __NLG_Return2              100282d2     LIBCMT:exsup.obj
 0001:000272e2       __abnormal_termination     100282e2 f   LIBCMT:exsup.obj
 0001:00027305       __NLG_Notify1              10028305 f   LIBCMT:exsup.obj
 0001:0002730e       __NLG_Notify               1002830e f   LIBCMT:exsup.obj
 0001:00027321       __NLG_Dispatch             10028321     LIBCMT:exsup.obj
 0001:00027326       __purecall                 10028326 f   LIBCMT:purevirt.obj
 0001:0002732f       ??1type_info@@UAE@XZ       1002832f f   LIBCMT:typinfo.obj
 0001:00027358       ??_Etype_info@@UAEPAXI@Z   10028358 f i LIBCMT:typinfo.obj
 0001:00027358       ??_Gtype_info@@UAEPAXI@Z   10028358 f i LIBCMT:typinfo.obj
 0001:00027374       __CxxThrowException@8      10028374 f   LIBCMT:throw.obj
 0001:000273b0       _memset                    100283b0 f   LIBCMT:memset.obj
 0001:00027441       @__security_check_cookie@4 10028441 f   LIBCMT:seccook.obj
 0001:0002744f       __wtol                     1002844f f   LIBCMT:wtox.obj
 0001:000274ae       __wtoi                     100284ae f   LIBCMT:wtox.obj
 0001:000274b3       __itow                     100284b3 f   LIBCMT:xtow.obj
 0001:000274f4       ??0exception@@QAE@XZ       100284f4 f   LIBCMT:stdexcpt.obj
 0001:00027505       ??0exception@@QAE@ABQBD@Z  10028505 f   LIBCMT:stdexcpt.obj
 0001:00027542       ??0exception@@QAE@ABV0@@Z  10028542 f   LIBCMT:stdexcpt.obj
 0001:0002758c       ??1exception@@UAE@XZ       1002858c f   LIBCMT:stdexcpt.obj
 0001:000275a2       ?what@exception@@UBEPBDXZ  100285a2 f   LIBCMT:stdexcpt.obj
 0001:000275af       ??_Eexception@@UAEPAXI@Z   100285af f i LIBCMT:stdexcpt.obj
 0001:000275af       ??_Gexception@@UAEPAXI@Z   100285af f i LIBCMT:stdexcpt.obj
 0001:000275d0       _memcpy                    100285d0 f   LIBCMT:memcpy.obj
 0001:00027910       _strlen                    10028910 f   LIBCMT:strlen.obj
 0001:000279a0       _memmove                   100289a0 f   LIBCMT:memmove.obj
 0001:00027cdd       _wcslen                    10028cdd f   LIBCMT:wcslen.obj
 0001:00027cf3       _wcscat                    10028cf3 f   LIBCMT:wcscat.obj
 0001:00027d1d       _wcscpy                    10028d1d f   LIBCMT:wcscat.obj
 0001:00027d39       _wcstok                    10028d39 f   LIBCMT:wcstok.obj
 0001:00027dde       ??_V@YAXPAX@Z              10028dde f   LIBCMT:delete2.obj
 0001:00027df0       _memcmp                    10028df0 f   LIBCMT:memcmp.obj
 0001:00027ea8       _swprintf                  10028ea8 f   LIBCMT:swprintf.obj
 0001:00027f17       _abs                       10028f17 f   LIBCMT:abs.obj
 0001:00027f22       _atol                      10028f22 f   LIBCMT:atox.obj
 0001:00027faa       _atoi                      10028faa f   LIBCMT:atox.obj
 0001:00027faf       _sprintf                   10028faf f   LIBCMT:sprintf.obj
 0001:00028007       _wcsicmp                   10029007 f   LIBCMT:wcsicmp.obj
 0001:00028007       __wcsicmp                  10029007 f   LIBCMT:wcsicmp.obj
 0001:000280c0       _strcpy                    100290c0 f   LIBCMT:strcat.obj
 0001:000280d0       _strcat                    100290d0 f   LIBCMT:strcat.obj
 0001:00028238       ___onexitinit              10029238 f   LIBCMT:onexit.obj
 0001:00028260       __onexit                   10029260 f   LIBCMT:onexit.obj
 0001:00028298       _atexit                    10029298 f   LIBCMT:onexit.obj
 0001:000282aa       _wcscmp                    100292aa f   LIBCMT:wcscmp.obj
 0001:000282dc       _wcsrchr                   100292dc f   LIBCMT:wcsrchr.obj
 0001:00028310       __alloca_probe             10029310     LIBCMT:chkstk.obj
 0001:00028310       __chkstk                   10029310 f   LIBCMT:chkstk.obj
 0001:0002834d       _strtok                    1002934d f   LIBCMT:strtok.obj
 0001:00028408       __fclose_lk                10029408 f   LIBCMT:fclose.obj
 0001:00028454       _fclose                    10029454 f   LIBCMT:fclose.obj
 0001:000284a5       __flush                    100294a5 f   LIBCMT:fflush.obj
 0001:00028502       __fflush_lk                10029502 f   LIBCMT:fflush.obj
 0001:00028605       __flushall                 10029605 f   LIBCMT:fflush.obj
 0001:0002860e       __CRT_INIT@12              1002960e f   LIBCMT:dllcrt0.obj
 0001:0002878c       __DllMainCRTStartup@12     1002978c f   LIBCMT:dllcrt0.obj
 0001:00028829       __amsg_exit                10029829 f   LIBCMT:dllcrt0.obj
 0001:0002885c       __heap_alloc               1002985c f   LIBCMT:malloc.obj
 0001:000288d7       __nh_malloc                100298d7 f   LIBCMT:malloc.obj
 0001:00028903       _malloc                    10029903 f   LIBCMT:malloc.obj
 0001:00028915       __callnewh                 10029915 f   LIBCMT:handler.obj
 0001:00028930       __EH_prolog                10029930 f   LIBCMT:ehprolog.obj
 0001:0002894f       _free                      1002994f f   LIBCMT:free.obj
 0001:00028a2d       ___FrameUnwindToState      10029a2d f   LIBCMT:frame.obj
 0001:00028afb       ___DestructExceptionObject 10029afb f   LIBCMT:frame.obj
 0001:00029189       ___InternalCxxFrameHandler 1002a189 f   LIBCMT:frame.obj
 0001:0002922b       ?terminate@@YAXXZ          1002a22b f   LIBCMT:hooks.obj
 0001:00029260       ?_inconsistency@@YAXXZ     1002a260 f   LIBCMT:hooks.obj
 0001:0002928d       __mtterm                   1002a28d f   LIBCMT:tidtable.obj
 0001:000292ab       __initptd                  1002a2ab f   LIBCMT:tidtable.obj
 0001:000292be       __getptd                   1002a2be f   LIBCMT:tidtable.obj
 0001:0002932f       __freeptd                  1002a32f f   LIBCMT:tidtable.obj
 0001:0002949a       __mtinit                   1002a49a f   LIBCMT:tidtable.obj
 0001:00029510       __CallSettingFrame@12      1002a510 f   LIBCMT:lowhelpr.obj
 0001:00029537       __NLG_Return               1002a537     LIBCMT:lowhelpr.obj
 0001:0002955c       __mtinitlocks              1002a55c f   LIBCMT:mlock.obj
 0001:000295a5       __mtdeletelocks            1002a5a5 f   LIBCMT:mlock.obj
 0001:000295fa       __unlock                   1002a5fa f   LIBCMT:mlock.obj
 0001:0002960f       __mtinitlocknum            1002a60f f   LIBCMT:mlock.obj
 0001:0002968e       __lock                     1002a68e f   LIBCMT:mlock.obj
 0001:000296c0       _strcmp                    1002a6c0 f   LIBCMT:strcmp.obj
 0001:00029748       ?__CxxUnhandledExceptionFilter@@YGJPAU_EXCEPTION_POINTERS@@@Z 1002a748 f   LIBCMT:unhandld.obj
 0001:0002978e       ?__CxxSetUnhandledExceptionFilter@@YAHXZ 1002a78e f   LIBCMT:unhandld.obj
 0001:000297a1       ?__CxxRestoreUnhandledExceptionFilter@@YAXXZ 1002a7a1 f   LIBCMT:unhandld.obj
 0001:000297ae       ___security_init_cookie    1002a7ae f   LIBCMT:seccinit.obj
 0001:00029804       ___security_error_handler  1002a804 f   LIBCMT:secfail.obj
 0001:00029950       __SEH_prolog               1002a950 f   LIBCMT:sehprolg.obj
 0001:0002998b       __SEH_epilog               1002a98b f   LIBCMT:sehprolg.obj
 0001:0002999c       __wchartodigit             1002a99c f   LIBCMT:wchtodig.obj
 0001:00029b12       ___iswctype_mt             1002ab12 f   LIBCMT:iswctype.obj
 0001:00029b69       _iswctype                  1002ab69 f   LIBCMT:iswctype.obj
 0001:00029bc0       __allmul                   1002abc0 f   LIBCMT:llmul.obj
 0001:00029bf4       ___mbstowcs_mt             1002abf4 f   LIBCMT:mbstowcs.obj
 0001:00029cea       _mbstowcs                  1002acea f   LIBCMT:mbstowcs.obj
 0001:00029d53       __itoa                     1002ad53 f   LIBCMT:xtoa.obj
 0001:00029d53       _itoa                      1002ad53 f   LIBCMT:xtoa.obj
 0001:00029d7d       __flsbuf                   1002ad7d f   LIBCMT:_flsbuf.obj
 0001:00029f1d       __woutput                  1002af1d f   LIBCMT:woutput.obj
 0001:0002a6ed       ___isctype_mt              1002b6ed f   LIBCMT:isctype.obj
 0001:0002a764       ___freetlocinfo            1002b764 f   LIBCMT:setlocal.obj
 0001:0002a8f0       ___updatetlocinfo          1002b8f0 f   LIBCMT:setlocal.obj
 0001:0002a9b9       __output                   1002b9b9 f   LIBCMT:output.obj
 0001:0002b14e       ___towlower_mt             1002c14e f   LIBCMT:towlower.obj
 0001:0002b1af       _realloc                   1002c1af f   LIBCMT:realloc.obj
 0001:0002b35c       ___crtExitProcess          1002c35c f   LIBCMT:crt0dat.obj
 0001:0002b38c       __lockexit                 1002c38c f   LIBCMT:crt0dat.obj
 0001:0002b395       __unlockexit               1002c395 f   LIBCMT:crt0dat.obj
 0001:0002b39e       __cinit                    1002c39e f   LIBCMT:crt0dat.obj
 0001:0002b4d6       __exit                     1002c4d6 f   LIBCMT:crt0dat.obj
 0001:0002b4e7       __cexit                    1002c4e7 f   LIBCMT:crt0dat.obj
 0001:0002b4f6       __msize                    1002c4f6 f   LIBCMT:msize.obj
 0001:0002b56c       ___initstdio               1002c56c f   LIBCMT:_file.obj
 0001:0002b615       ___endstdio                1002c615 f   LIBCMT:_file.obj
 0001:0002b629       __lock_file                1002c629 f   LIBCMT:_file.obj
 0001:0002b658       __lock_file2               1002c658 f   LIBCMT:_file.obj
 0001:0002b67b       __unlock_file              1002c67b f   LIBCMT:_file.obj
 0001:0002b6aa       __unlock_file2             1002c6aa f   LIBCMT:_file.obj
 0001:0002b6cd       __errno                    1002c6cd f   LIBCMT:dosmap.obj
 0001:0002b6d6       ___doserrno                1002c6d6 f   LIBCMT:dosmap.obj
 0001:0002b6df       __dosmaperr                1002c6df f   LIBCMT:dosmap.obj
 0001:0002b752       __write_lk                 1002c752 f   LIBCMT:write.obj
 0001:0002b8f7       __write                    1002c8f7 f   LIBCMT:write.obj
 0001:0002b9a2       __close_lk                 1002c9a2 f   LIBCMT:close.obj
 0001:0002ba25       __close                    1002ca25 f   LIBCMT:close.obj
 0001:0002bac0       __freebuf                  1002cac0 f   LIBCMT:_freebuf.obj
 0001:0002baeb       __commit                   1002caeb f   LIBCMT:commit.obj
 0001:0002bba7       _calloc                    1002cba7 f   LIBCMT:calloc.obj
 0001:0002bc62       __ioinit                   1002cc62 f   LIBCMT:ioinit.obj
 0001:0002be60       __ioterm                   1002ce60 f   LIBCMT:ioinit.obj
 0001:0002beac       __setenvp                  1002ceac f   LIBCMT:stdenvp.obj
 0001:0002c0df       __setargv                  1002d0df f   LIBCMT:stdargv.obj
 0001:0002c181       ___crtGetEnvironmentStringsA 1002d181 f   LIBCMT:a_env.obj
 0001:0002c2a3       __RTC_Initialize           1002d2a3 f   LIBCMT:initsect.obj
 0001:0002c2e7       __RTC_Terminate            1002d2e7 f   LIBCMT:initsect.obj
 0001:0002c32b       ___heap_select             1002d32b f   LIBCMT:heapinit.obj
 0001:0002c345       __heap_init                1002d345 f   LIBCMT:heapinit.obj
 0001:0002c396       __heap_term                1002d396 f   LIBCMT:heapinit.obj
 0001:0002c415       __NMSG_WRITE               1002d415 f   LIBCMT:crt0msg.obj
 0001:0002c58c       __FF_MSGBANNER             1002d58c f   LIBCMT:crt0msg.obj
 0001:0002c5c5       ___sbh_heap_init           1002d5c5 f   LIBCMT:sbheap.obj
 0001:0002c60d       ___sbh_find_block          1002d60d f   LIBCMT:sbheap.obj
 0001:0002c638       ___sbh_free_block          1002d638 f   LIBCMT:sbheap.obj
 0001:0002c950       ___sbh_alloc_new_region    1002d950 f   LIBCMT:sbheap.obj
 0001:0002ca07       ___sbh_alloc_new_group     1002da07 f   LIBCMT:sbheap.obj
 0001:0002cb0d       ___sbh_resize_block        1002db0d f   LIBCMT:sbheap.obj
 0001:0002cdec       ___sbh_alloc_block         1002ddec f   LIBCMT:sbheap.obj
 0001:0002d0e8       ?_ValidateRead@@YAHPBXI@Z  1002e0e8 f   LIBCMT:validate.obj
 0001:0002d104       ?_ValidateWrite@@YAHPAXI@Z 1002e104 f   LIBCMT:validate.obj
 0001:0002d120       ?_ValidateExecute@@YAHP6GHXZ@Z 1002e120 f   LIBCMT:validate.obj
 0001:0002d138       _abort                     1002e138 f   LIBCMT:abort.obj
 0001:0002d4d0       __setmbcp                  1002e4d0 f   LIBCMT:mbctype.obj
 0001:0002d620       ___initmbctable            1002e620 f   LIBCMT:mbctype.obj
 0001:0002d64e       ___crtInitCritSecAndSpinCount 1002e64e f   LIBCMT:initcrit.obj
 0001:0002d6d9       ___crtMessageBoxA          1002e6d9 f   LIBCMT:crtmbox.obj
 0001:0002d7e0       _strncpy                   1002e7e0 f   LIBCMT:strncpy.obj
 0001:0002d90c       __except_handler3          1002e90c f   LIBCMT:exsup3.obj
 0001:0002d9c9       __seh_longjmp_unwind@4     1002e9c9 f   LIBCMT:exsup3.obj
 0001:0002d9e4       ___crtGetStringTypeW       1002e9e4 f   LIBCMT:w_str.obj
 0001:0002dc10       __aulldvrm                 1002ec10 f   LIBCMT:ulldvrm.obj
 0001:0002dca5       __lseek_lk                 1002eca5 f   LIBCMT:lseek.obj
 0001:0002dd19       __lseek                    1002ed19 f   LIBCMT:lseek.obj
 0001:0002ddc4       __getbuf                   1002edc4 f   LIBCMT:_getbuf.obj
 0001:0002de08       __isatty                   1002ee08 f   LIBCMT:isatty.obj
 0001:0002de32       __putwc_lk                 1002ee32 f   LIBCMT:fputwc.obj
 0001:0002df0e       ___mbtowc_mt               1002ef0e f   LIBCMT:mbtowc.obj
 0001:0002dfce       _mbtowc                    1002efce f   LIBCMT:mbtowc.obj
 0001:0002dff9       ___crtGetStringTypeA       1002eff9 f   LIBCMT:a_str.obj
 0001:0002e1b3       ___free_lc_time            1002f1b3 f   LIBCMT:inittime.obj
 0001:0002e343       ___free_lconv_num          1002f343 f   LIBCMT:initnum.obj
 0001:0002e3a2       ___free_lconv_mon          1002f3a2 f   LIBCMT:initmon.obj
 0001:0002e480       _strcspn                   1002f480 f   LIBCMT:strcspn.obj
 0001:0002e4d0       _strncmp                   1002f4d0 f   LIBCMT:strncmp.obj
 0001:0002e510       _strpbrk                   1002f510 f   LIBCMT:strpbrk.obj
 0001:0002e550       ___wctomb_mt               1002f550 f   LIBCMT:wctomb.obj
 0001:0002e5b0       _wctomb                    1002f5b0 f   LIBCMT:wctomb.obj
 0001:0002e5d7       ___crtLCMapStringW         1002f5d7 f   LIBCMT:w_map.obj
 0001:0002e830       __fcloseall                1002f830 f   LIBCMT:closeall.obj
 0001:0002e8cb       __lseeki64_lk              1002f8cb f   LIBCMT:lseeki64.obj
 0001:0002e94e       __free_osfhnd              1002f94e f   LIBCMT:osfinfo.obj
 0001:0002e9cd       __get_osfhandle            1002f9cd f   LIBCMT:osfinfo.obj
 0001:0002ea0e       __lock_fhandle             1002fa0e f   LIBCMT:osfinfo.obj
 0001:0002ea81       __unlock_fhandle           1002fa81 f   LIBCMT:osfinfo.obj
 0001:0002ead1       _raise                     1002fad1 f   LIBCMT:winsig.obj
 0001:0002ec4a       ___crtLCMapStringA         1002fc4a f   LIBCMT:a_map.obj
 0001:0002f006       __resetstkoflw             10030006 f   LIBCMT:resetstk.obj
 0001:0002f0d7       ___ansicp                  100300d7 f   LIBCMT:convrtcp.obj
 0001:0002f120       ___convertcp               10030120 f   LIBCMT:convrtcp.obj
 0001:0002f2ef       __flswbuf                  100302ef f   LIBCMT:_flswbuf.obj
 0001:0002f417       __fptrap                   10030417 f   LIBCMT:crt0fp.obj
 0001:0002f420       ___ascii_stricmp           10030420 f   LIBCMT:_stricmp.obj
 0001:0002f46e       __stricmp                  1003046e f   LIBCMT:stricmp.obj
 0001:0002f46e       _stricmp                   1003046e f   LIBCMT:stricmp.obj
 0001:0002f4d7       ___tolower_mt              100304d7 f   LIBCMT:tolower.obj
 0001:0002f5a0       ___ascii_strnicmp          100305a0 f   LIBCMT:_strnicm.obj
 0001:0002f620       _strchr                    10030620 f   LIBCMT:strchr.obj
 0001:0002f626       ___from_strstr_to_strchr   10030626     LIBCMT:strchr.obj
 0001:0002f6e0       _RtlUnwind@16              100306e0 f   kernel32:KERNEL32.dll
 0002:00000000       __imp__IsTextUnicode@12    10032000     advapi32:ADVAPI32.dll
 0002:00000004       \177ADVAPI32_NULL_THUNK_DATA 10032004     advapi32:ADVAPI32.dll
 0002:00000008       __imp__GetObjectW@12       10032008     gdi32:GDI32.dll
 0002:0000000c       __imp__CreateFontIndirectW@4 1003200c     gdi32:GDI32.dll
 0002:00000010       __imp__EnumFontFamiliesExW@20 10032010     gdi32:GDI32.dll
 0002:00000014       __imp__CreateCompatibleDC@4 10032014     gdi32:GDI32.dll
 0002:00000018       __imp__CreateCompatibleBitmap@12 10032018     gdi32:GDI32.dll
 0002:0000001c       __imp__BitBlt@36           1003201c     gdi32:GDI32.dll
 0002:00000020       __imp__SetBkColor@8        10032020     gdi32:GDI32.dll
 0002:00000024       __imp__SetBkMode@8         10032024     gdi32:GDI32.dll
 0002:00000028       __imp__GetStockObject@4    10032028     gdi32:GDI32.dll
 0002:0000002c       __imp__CreatePen@12        1003202c     gdi32:GDI32.dll
 0002:00000030       __imp__SelectObject@8      10032030     gdi32:GDI32.dll
 0002:00000034       __imp__MoveToEx@16         10032034     gdi32:GDI32.dll
 0002:00000038       __imp__LineTo@12           10032038     gdi32:GDI32.dll
 0002:0000003c       __imp__CreateSolidBrush@4  1003203c     gdi32:GDI32.dll
 0002:00000040       __imp__DeleteObject@4      10032040     gdi32:GDI32.dll
 0002:00000044       __imp__DeleteDC@4          10032044     gdi32:GDI32.dll
 0002:00000048       __imp__GetDeviceCaps@8     10032048     gdi32:GDI32.dll
 0002:0000004c       __imp__GetTextExtentPoint32W@16 1003204c     gdi32:GDI32.dll
 0002:00000050       __imp__SetTextColor@8      10032050     gdi32:GDI32.dll
 0002:00000054       __imp__PatBlt@24           10032054     gdi32:GDI32.dll
 0002:00000058       __imp__GetTextExtentPointW@16 10032058     gdi32:GDI32.dll
 0002:0000005c       __imp__CreateFontW@56      1003205c     gdi32:GDI32.dll
 0002:00000060       \177GDI32_NULL_THUNK_DATA  10032060     gdi32:GDI32.dll
 0002:00000064       __imp__GlobalAlloc@8       10032064     kernel32:KERNEL32.dll
 0002:00000068       __imp__SizeofResource@8    10032068     kernel32:KERNEL32.dll
 0002:0000006c       __imp__LockResource@4      1003206c     kernel32:KERNEL32.dll
 0002:00000070       __imp__LoadResource@8      10032070     kernel32:KERNEL32.dll
 0002:00000074       __imp__FindResourceW@12    10032074     kernel32:KERNEL32.dll
 0002:00000078       __imp__GlobalFree@4        10032078     kernel32:KERNEL32.dll
 0002:0000007c       __imp__LocalFree@4         1003207c     kernel32:KERNEL32.dll
 0002:00000080       __imp__FormatMessageW@28   10032080     kernel32:KERNEL32.dll
 0002:00000084       __imp__VirtualQuery@12     10032084     kernel32:KERNEL32.dll
 0002:00000088       __imp__GetSystemInfo@4     10032088     kernel32:KERNEL32.dll
 0002:0000008c       __imp__VirtualProtect@16   1003208c     kernel32:KERNEL32.dll
 0002:00000090       __imp__SetStdHandle@8      10032090     kernel32:KERNEL32.dll
 0002:00000094       __imp__LCMapStringW@24     10032094     kernel32:KERNEL32.dll
 0002:00000098       __imp__LCMapStringA@24     10032098     kernel32:KERNEL32.dll
 0002:0000009c       __imp__GetLocaleInfoA@16   1003209c     kernel32:KERNEL32.dll
 0002:000000a0       __imp__GetStringTypeW@16   100320a0     kernel32:KERNEL32.dll
 0002:000000a4       __imp__GetStringTypeA@20   100320a4     kernel32:KERNEL32.dll
 0002:000000a8       __imp__LoadLibraryA@4      100320a8     kernel32:KERNEL32.dll
 0002:000000ac       __imp__InitializeCriticalSection@4 100320ac     kernel32:KERNEL32.dll
 0002:000000b0       __imp__GetCPInfo@8         100320b0     kernel32:KERNEL32.dll
 0002:000000b4       __imp__GetOEMCP@0          100320b4     kernel32:KERNEL32.dll
 0002:000000b8       __imp__GetACP@0            100320b8     kernel32:KERNEL32.dll
 0002:000000bc       __imp__CreateDirectoryW@8  100320bc     kernel32:KERNEL32.dll
 0002:000000c0       __imp__IsBadReadPtr@8      100320c0     kernel32:KERNEL32.dll
 0002:000000c4       __imp__IsBadWritePtr@8     100320c4     kernel32:KERNEL32.dll
 0002:000000c8       __imp__VirtualAlloc@16     100320c8     kernel32:KERNEL32.dll
 0002:000000cc       __imp__VirtualFree@12      100320cc     kernel32:KERNEL32.dll
 0002:000000d0       __imp__HeapCreate@12       100320d0     kernel32:KERNEL32.dll
 0002:000000d4       __imp__HeapDestroy@4       100320d4     kernel32:KERNEL32.dll
 0002:000000d8       __imp__GetEnvironmentStringsW@0 100320d8     kernel32:KERNEL32.dll
 0002:000000dc       __imp__FreeEnvironmentStringsW@4 100320dc     kernel32:KERNEL32.dll
 0002:000000e0       __imp__GetEnvironmentStrings@0 100320e0     kernel32:KERNEL32.dll
 0002:000000e4       __imp__FreeEnvironmentStringsA@4 100320e4     kernel32:KERNEL32.dll
 0002:000000e8       __imp__GetStartupInfoA@4   100320e8     kernel32:KERNEL32.dll
 0002:000000ec       __imp__GetFileType@4       100320ec     kernel32:KERNEL32.dll
 0002:000000f0       __imp__GetStdHandle@4      100320f0     kernel32:KERNEL32.dll
 0002:000000f4       __imp__SetHandleCount@4    100320f4     kernel32:KERNEL32.dll
 0002:000000f8       __imp__FlushFileBuffers@4  100320f8     kernel32:KERNEL32.dll
 0002:000000fc       __imp__HeapSize@12         100320fc     kernel32:KERNEL32.dll
 0002:00000100       __imp__GetCurrentProcess@0 10032100     kernel32:KERNEL32.dll
 0002:00000104       __imp__TerminateProcess@8  10032104     kernel32:KERNEL32.dll
 0002:00000108       __imp__GetModuleHandleA@4  10032108     kernel32:KERNEL32.dll
 0002:0000010c       __imp__HeapReAlloc@16      1003210c     kernel32:KERNEL32.dll
 0002:00000110       __imp__GetModuleFileNameA@12 10032110     kernel32:KERNEL32.dll
 0002:00000114       __imp__GetSystemTimeAsFileTime@4 10032114     kernel32:KERNEL32.dll
 0002:00000118       __imp__GetCurrentProcessId@0 10032118     kernel32:KERNEL32.dll
 0002:0000011c       __imp__GetTickCount@0      1003211c     kernel32:KERNEL32.dll
 0002:00000120       __imp__QueryPerformanceCounter@4 10032120     kernel32:KERNEL32.dll
 0002:00000124       __imp__SetUnhandledExceptionFilter@4 10032124     kernel32:KERNEL32.dll
 0002:00000128       __imp__EnterCriticalSection@4 10032128     kernel32:KERNEL32.dll
 0002:0000012c       __imp__LeaveCriticalSection@4 1003212c     kernel32:KERNEL32.dll
 0002:00000130       __imp__DeleteCriticalSection@4 10032130     kernel32:KERNEL32.dll
 0002:00000134       __imp__TlsAlloc@0          10032134     kernel32:KERNEL32.dll
 0002:00000138       __imp__TlsGetValue@4       10032138     kernel32:KERNEL32.dll
 0002:0000013c       __imp__SetLastError@4      1003213c     kernel32:KERNEL32.dll
 0002:00000140       __imp__TlsFree@4           10032140     kernel32:KERNEL32.dll
 0002:00000144       __imp__HeapFree@12         10032144     kernel32:KERNEL32.dll
 0002:00000148       __imp__HeapAlloc@12        10032148     kernel32:KERNEL32.dll
 0002:0000014c       __imp__GetVersionExA@4     1003214c     kernel32:KERNEL32.dll
 0002:00000150       __imp__GetCommandLineA@0   10032150     kernel32:KERNEL32.dll
 0002:00000154       __imp__TlsSetValue@8       10032154     kernel32:KERNEL32.dll
 0002:00000158       __imp__GetCurrentThreadId@0 10032158     kernel32:KERNEL32.dll
 0002:0000015c       __imp__ExitProcess@4       1003215c     kernel32:KERNEL32.dll
 0002:00000160       __imp__RaiseException@16   10032160     kernel32:KERNEL32.dll
 0002:00000164       __imp__RtlUnwind@16        10032164     kernel32:KERNEL32.dll
 0002:00000168       __imp__CreateFileW@28      10032168     kernel32:KERNEL32.dll
 0002:0000016c       __imp__WriteFile@20        1003216c     kernel32:KERNEL32.dll
 0002:00000170       __imp__GetPrivateProfileStringW@24 10032170     kernel32:KERNEL32.dll
 0002:00000174       __imp__OutputDebugStringW@4 10032174     kernel32:KERNEL32.dll
 0002:00000178       __imp__GlobalLock@4        10032178     kernel32:KERNEL32.dll
 0002:0000017c       __imp__WideCharToMultiByte@32 1003217c     kernel32:KERNEL32.dll
 0002:00000180       __imp__GlobalUnlock@4      10032180     kernel32:KERNEL32.dll
 0002:00000184       __imp__MulDiv@12           10032184     kernel32:KERNEL32.dll
 0002:00000188       __imp__CloseHandle@4       10032188     kernel32:KERNEL32.dll
 0002:0000018c       __imp__DeleteFileW@4       1003218c     kernel32:KERNEL32.dll
 0002:00000190       __imp__MultiByteToWideChar@24 10032190     kernel32:KERNEL32.dll
 0002:00000194       __imp__SetFilePointer@16   10032194     kernel32:KERNEL32.dll
 0002:00000198       __imp__ReadFile@20         10032198     kernel32:KERNEL32.dll
 0002:0000019c       __imp__GetLastError@0      1003219c     kernel32:KERNEL32.dll
 0002:000001a0       __imp__GetPrivateProfileIntW@16 100321a0     kernel32:KERNEL32.dll
 0002:000001a4       __imp__WritePrivateProfileStringW@16 100321a4     kernel32:KERNEL32.dll
 0002:000001a8       __imp__GetModuleHandleW@4  100321a8     kernel32:KERNEL32.dll
 0002:000001ac       __imp__GetProcAddress@8    100321ac     kernel32:KERNEL32.dll
 0002:000001b0       __imp__GetModuleFileNameW@12 100321b0     kernel32:KERNEL32.dll
 0002:000001b4       __imp__IsBadCodePtr@4      100321b4     kernel32:KERNEL32.dll
 0002:000001b8       \177KERNEL32_NULL_THUNK_DATA 100321b8     kernel32:KERNEL32.dll
 0002:000001bc       __imp__DragQueryFileW@16   100321bc     shell32:SHELL32.dll
 0002:000001c0       __imp__DragFinish@4        100321c0     shell32:SHELL32.dll
 0002:000001c4       __imp__ShellExecuteW@24    100321c4     shell32:SHELL32.dll
 0002:000001c8       \177SHELL32_NULL_THUNK_DATA 100321c8     shell32:SHELL32.dll
 0002:000001cc       __imp__PathRemoveExtensionW@4 100321cc     shlwapi:SHLWAPI.dll
 0002:000001d0       __imp__PathRemoveBackslashW@4 100321d0     shlwapi:SHLWAPI.dll
 0002:000001d4       __imp__PathFileExistsW@4   100321d4     shlwapi:SHLWAPI.dll
 0002:000001d8       __imp__PathAppendW@8       100321d8     shlwapi:SHLWAPI.dll
 0002:000001dc       __imp__PathFindFileNameW@4 100321dc     shlwapi:SHLWAPI.dll
 0002:000001e0       \177SHLWAPI_NULL_THUNK_DATA 100321e0     shlwapi:SHLWAPI.dll
 0002:000001e4       __imp__KillTimer@8         100321e4     user32:USER32.dll
 0002:000001e8       __imp__SetWindowLongW@12   100321e8     user32:USER32.dll
 0002:000001ec       __imp__CreateDialogIndirectParamW@20 100321ec     user32:USER32.dll
 0002:000001f0       __imp__SystemParametersInfoW@16 100321f0     user32:USER32.dll
 0002:000001f4       __imp__EndPaint@8          100321f4     user32:USER32.dll
 0002:000001f8       __imp__CreateCursor@28     100321f8     user32:USER32.dll
 0002:000001fc       __imp__SetCursor@4         100321fc     user32:USER32.dll
 0002:00000200       __imp__GetSystemMetrics@4  10032200     user32:USER32.dll
 0002:00000204       __imp__GetDlgItemTextW@16  10032204     user32:USER32.dll
 0002:00000208       __imp__SendMessageA@16     10032208     user32:USER32.dll
 0002:0000020c       __imp__GetMenuItemCount@4  1003220c     user32:USER32.dll
 0002:00000210       __imp__GetMenuItemID@8     10032210     user32:USER32.dll
 0002:00000214       __imp__GetSubMenu@8        10032214     user32:USER32.dll
 0002:00000218       __imp__GetMenuStringW@20   10032218     user32:USER32.dll
 0002:0000021c       __imp__ModifyMenuW@20      1003221c     user32:USER32.dll
 0002:00000220       __imp__DrawMenuBar@4       10032220     user32:USER32.dll
 0002:00000224       __imp__GetMenuState@12     10032224     user32:USER32.dll
 0002:00000228       __imp__GetActiveWindow@0   10032228     user32:USER32.dll
 0002:0000022c       __imp__EnableMenuItem@12   1003222c     user32:USER32.dll
 0002:00000230       __imp__LoadImageW@24       10032230     user32:USER32.dll
 0002:00000234       __imp__CallWindowProcA@20  10032234     user32:USER32.dll
 0002:00000238       __imp__DestroyIcon@4       10032238     user32:USER32.dll
 0002:0000023c       __imp__DestroyCursor@4     1003223c     user32:USER32.dll
 0002:00000240       __imp__DrawTextW@20        10032240     user32:USER32.dll
 0002:00000244       __imp__CreatePopupMenu@0   10032244     user32:USER32.dll
 0002:00000248       __imp__AppendMenuW@16      10032248     user32:USER32.dll
 0002:0000024c       __imp__TrackPopupMenu@28   1003224c     user32:USER32.dll
 0002:00000250       __imp__DestroyMenu@4       10032250     user32:USER32.dll
 0002:00000254       __imp__IsClipboardFormatAvailable@4 10032254     user32:USER32.dll
 0002:00000258       __imp__OpenClipboard@4     10032258     user32:USER32.dll
 0002:0000025c       __imp__GetClipboardData@4  1003225c     user32:USER32.dll
 0002:00000260       __imp__CloseClipboard@0    10032260     user32:USER32.dll
 0002:00000264       __imp__GetKeyState@4       10032264     user32:USER32.dll
 0002:00000268       __imp__ClientToScreen@8    10032268     user32:USER32.dll
 0002:0000026c       __imp__GetCursorPos@4      1003226c     user32:USER32.dll
 0002:00000270       __imp__ScreenToClient@8    10032270     user32:USER32.dll
 0002:00000274       __imp__IsIconic@4          10032274     user32:USER32.dll
 0002:00000278       __imp__SetForegroundWindow@4 10032278     user32:USER32.dll
 0002:0000027c       __imp__BeginPaint@8        1003227c     user32:USER32.dll
 0002:00000280       __imp__SetTimer@16         10032280     user32:USER32.dll
 0002:00000284       __imp__GetDC@4             10032284     user32:USER32.dll
 0002:00000288       __imp__IsWindowUnicode@4   10032288     user32:USER32.dll
 0002:0000028c       __imp__SetWindowLongA@12   1003228c     user32:USER32.dll
 0002:00000290       __imp__SetDlgItemTextA@12  10032290     user32:USER32.dll
 0002:00000294       __imp__SetWindowTextA@8    10032294     user32:USER32.dll
 0002:00000298       __imp__GetWindowTextA@12   10032298     user32:USER32.dll
 0002:0000029c       __imp__MessageBoxW@16      1003229c     user32:USER32.dll
 0002:000002a0       __imp__EnableWindow@8      100322a0     user32:USER32.dll
 0002:000002a4       __imp__SetFocus@4          100322a4     user32:USER32.dll
 0002:000002a8       __imp__SetWindowTextW@8    100322a8     user32:USER32.dll
 0002:000002ac       __imp__EndDialog@8         100322ac     user32:USER32.dll
 0002:000002b0       __imp__GetWindowTextW@12   100322b0     user32:USER32.dll
 0002:000002b4       __imp__DialogBoxParamW@20  100322b4     user32:USER32.dll
 0002:000002b8       __imp__SendDlgItemMessageW@20 100322b8     user32:USER32.dll
 0002:000002bc       __imp__GetSysColor@4       100322bc     user32:USER32.dll
 0002:000002c0       __imp__FrameRect@12        100322c0     user32:USER32.dll
 0002:000002c4       __imp__GetDlgItem@8        100322c4     user32:USER32.dll
 0002:000002c8       __imp__CreateDialogParamW@20 100322c8     user32:USER32.dll
 0002:000002cc       __imp__GetWindowDC@4       100322cc     user32:USER32.dll
 0002:000002d0       __imp__FillRect@12         100322d0     user32:USER32.dll
 0002:000002d4       __imp__GetFocus@0          100322d4     user32:USER32.dll
 0002:000002d8       __imp__InflateRect@12      100322d8     user32:USER32.dll
 0002:000002dc       __imp__DrawFocusRect@8     100322dc     user32:USER32.dll
 0002:000002e0       __imp__ReleaseDC@8         100322e0     user32:USER32.dll
 0002:000002e4       __imp__RedrawWindow@16     100322e4     user32:USER32.dll
 0002:000002e8       __imp__DestroyWindow@4     100322e8     user32:USER32.dll
 0002:000002ec       __imp__SetWindowPos@28     100322ec     user32:USER32.dll
 0002:000002f0       __imp__IsWindowVisible@4   100322f0     user32:USER32.dll
 0002:000002f4       __imp__GetClientRect@8     100322f4     user32:USER32.dll
 0002:000002f8       __imp__InvalidateRect@12   100322f8     user32:USER32.dll
 0002:000002fc       __imp__UpdateWindow@4      100322fc     user32:USER32.dll
 0002:00000300       __imp__MoveWindow@24       10032300     user32:USER32.dll
 0002:00000304       __imp__ShowWindow@8        10032304     user32:USER32.dll
 0002:00000308       __imp__GetWindowRect@8     10032308     user32:USER32.dll
 0002:0000030c       __imp__CallWindowProcW@20  1003230c     user32:USER32.dll
 0002:00000310       __imp__GetWindowLongW@8    10032310     user32:USER32.dll
 0002:00000314       __imp__SendMessageW@16     10032314     user32:USER32.dll
 0002:00000318       \177USER32_NULL_THUNK_DATA 10032318     user32:USER32.dll
 0002:0000031c       __imp__ChooseColorW@4      1003231c     comdlg32:comdlg32.dll
 0002:00000320       \177comdlg32_NULL_THUNK_DATA 10032320     comdlg32:comdlg32.dll
 0002:000003d0       ??_7ColorPopup@@6B@        100323d0     ColorCombo.obj
 0002:00000400       ??_7Window@@6B@            10032400     ColorCombo.obj
 0002:00000450       ??_C@_1BG@DAPEMECE@?$AAC?$AAo?$AAl?$AAo?$AAr?$AAP?$AAo?$AAp?$AAu?$AAp?$AA?$AA@ 10032450     ColorPopup.obj
 0002:00000466       ??_C@_00CNPNBAHC@?$AA@     10032466     ColorPopup.obj
 0002:00000488       ??_C@_1BK@OFKEIPNI@?$AAA?$AAd?$AAd?$AAr?$AAe?$AAs?$AAs?$AAW?$AAi?$AAd?$AAt?$AAh?$AA?$AA@ 10032488     ColumnDialog.obj
 0002:000004a4       ??_C@_1BM@EFJPGPAK@?$AAA?$AAd?$AAd?$AAr?$AAe?$AAs?$AAs?$AA?5?$AAW?$AAi?$AAd?$AAt?$AAh?$AA?$AA@ 100324a4     ColumnDialog.obj
 0002:000004c0       ??_C@_1BI@EPFIBOMA@?$AAC?$AAo?$AAl?$AAu?$AAm?$AAn?$AAC?$AAo?$AAu?$AAn?$AAt?$AA?$AA@ 100324c0     ColumnDialog.obj
 0002:000005a0       ??_C@_1BG@DHKBHCPK@?$AAC?$AAo?$AAm?$AAp?$AAD?$AAi?$AAa?$AAl?$AAo?$AAg?$AA?$AA@ 100325a0     CompareDialog.obj
 0002:000005b8       ??_C@_0BD@OLBABOEK@vector?$DMT?$DO?5too?5long?$AA@ 100325b8     CompareDialog.obj
 0002:000006d0       ??_C@_1BI@MKDFHJHL@?$AAF?$AAi?$AAn?$AAd?$AAR?$AAe?$AAp?$AAl?$AAa?$AAc?$AAe?$AA?$AA@ 100326d0     FindReplaceDialog.obj
 0002:000006e8       ??_C@_0BL@DALDAJFK@SetLayeredWindowAttributes?$AA@ 100326e8     FindReplaceDialog.obj
 0002:00000704       ??_C@_1O@NPEPGMDM@?$AAU?$AAs?$AAe?$AAr?$AA3?$AA2?$AA?$AA@ 10032704     FindReplaceDialog.obj
 0002:00000714       ??_C@_1BA@CFILAHAD@?$AAR?$AAe?$AAp?$AAl?$AAa?$AAc?$AAe?$AA?$AA@ 10032714     FindReplaceDialog.obj
 0002:00000724       ??_C@_19MGMPFFIA@?$AAF?$AAi?$AAn?$AAd?$AA?$AA@ 10032724     FindReplaceDialog.obj
 0002:00000730       ??_C@_1BG@IELGHEGN@?$AAC?$AAa?$AAn?$AA?8?$AAt?$AA?5?$AAf?$AAi?$AAn?$AAd?$AA?$AA@ 10032730     FindReplaceDialog.obj
 0002:00000748       ??_C@_1BC@OFHGCDIN@?$AAC?$AAa?$AAn?$AAt?$AAF?$AAi?$AAn?$AAd?$AA?$AA@ 10032748     FindReplaceDialog.obj
 0002:0000075c       ??_C@_1DM@BIDHDFMJ@?$AAS?$AAe?$AAl?$AAe?$AAc?$AAt?$AA?5?$AAs?$AAo?$AAm?$AAe?$AAt?$AAh?$AAi?$AAn?$AAg?$AA?5?$AAi?$AAn?$AA?5@ 1003275c     FindReplaceDialog.obj
 0002:00000798       ??_C@_1BG@DDCLMDBJ@?$AAH?$AAe?$AAx?$AA?9?$AAE?$AAd?$AAi?$AAt?$AAo?$AAr?$AA?$AA@ 10032798     FindReplaceDialog.obj
 0002:000007b0       ??_C@_1CO@CBKJPPDJ@?$AAM?$AAs?$AAg?$AAB?$AAo?$AAx?$AA?5?$AAS?$AAe?$AAl?$AAe?$AAc?$AAt?$AAS?$AAo?$AAm?$AAe?$AAt?$AAh?$AAi@ 100327b0     FindReplaceDialog.obj
 0002:000007e0       ??_C@_13KDLDGPGJ@?$AA?7?$AA?$AA@ 100327e0     FindReplaceDialog.obj
 0002:000007e8       ??_C@_1BEK@LBDDIJAB@?$AAI?$AAn?$AA?5?$AAL?$AAi?$AAt?$AAt?$AAl?$AAe?$AA?9?$AAE?$AAn?$AAd?$AAi?$AAa?$AAn?$AA?9?$AAM?$AAo?$AAd@ 100327e8     FindReplaceDialog.obj
 0002:00000934       ??_C@_1CC@EIACDHME@?$AAH?$AAe?$AAx?$AA?9?$AAE?$AAd?$AAi?$AAt?$AAo?$AAr?$AA?5?$AAE?$AAr?$AAr?$AAo?$AAr?$AA?$AA@ 10032934     FindReplaceDialog.obj
 0002:00000958       ??_C@_1CC@KAEAOML@?$AAM?$AAs?$AAg?$AAB?$AAo?$AAx?$AA?5?$AAR?$AAe?$AAp?$AAl?$AAE?$AAr?$AAr?$AAo?$AAr?$AA?$AA@ 10032958     FindReplaceDialog.obj
 0002:00000980       ??_C@_1GM@FGBCIDPC@?$AA?$CF?$AAs?$AA?$CF?$AAi?$AA?5?$AAt?$AAo?$AAk?$AAe?$AAn?$AAs?$AA?5?$AAa?$AAr?$AAe?$AA?5?$AAs?$AAk?$AAi?$AAp@ 10032980     FindReplaceDialog.obj
 0002:000009ec       ??_C@_1BO@HNMOIHCD@?$AAT?$AAo?$AAk?$AAe?$AAn?$AAs?$AA?5?$AAS?$AAk?$AAi?$AAp?$AAp?$AAe?$AAd?$AA?$AA@ 100329ec     FindReplaceDialog.obj
 0002:00000a0c       ??_C@_1DC@OLOFGFBO@?$AA?$CF?$AAi?$AA?5?$AAt?$AAo?$AAk?$AAe?$AAn?$AAs?$AA?5?$AAa?$AAr?$AAe?$AA?5?$AAr?$AAe?$AAp?$AAl?$AAa?$AAc@ 10032a0c     FindReplaceDialog.obj
 0002:00000a40       ??_C@_1CA@LCEIGPJH@?$AAT?$AAo?$AAk?$AAe?$AAn?$AAs?$AA?5?$AAR?$AAe?$AAp?$AAl?$AAa?$AAc?$AAe?$AAd?$AA?$AA@ 10032a40     FindReplaceDialog.obj
 0002:00000a60       ??_C@_1M@NBCIMFHI@?$AAC?$AAo?$AAu?$AAn?$AAt?$AA?$AA@ 10032a60     FindReplaceDialog.obj
 0002:00000a6c       ??_C@_1CK@OKINCLEO@?$AA?$CF?$AAi?$AA?5?$AAt?$AAo?$AAk?$AAe?$AAn?$AAs?$AA?5?$AAa?$AAr?$AAe?$AA?5?$AAf?$AAo?$AAu?$AAn?$AAd?$AA?4@ 10032a6c     FindReplaceDialog.obj
 0002:00000a98       ??_C@_1BK@LBOAIHIF@?$AAT?$AAo?$AAk?$AAe?$AAn?$AAs?$AA?5?$AAF?$AAo?$AAu?$AAn?$AAd?$AA?$AA@ 10032a98     FindReplaceDialog.obj
 0002:00000b88       ??_C@_13COJANIEC@?$AA0?$AA?$AA@ 10032b88     GotoDialog.obj
 0002:00000b8c       ??_C@_13JGCMLPCH@?$AA1?$AA?$AA@ 10032b8c     GotoDialog.obj
 0002:00000b90       ??_C@_19JKCOJBMF@?$AAG?$AAo?$AAt?$AAo?$AA?$AA@ 10032b90     GotoDialog.obj
 0002:00000b9c       ??_C@_02DPKJAMEF@?$CFd?$AA@ 10032b9c     GotoDialog.obj
 0002:00000ba0       ??_C@_02NJNOFBBI@?$CFx?$AA@ 10032ba0     GotoDialog.obj
 0002:00000ba4       ??_C@_04JIMNDDED@?$CF08X?$AA@ 10032ba4     GotoDialog.obj
 0002:00001678       ??_7HexEdit@@6B@           10033678     HEXDialog.obj
 0002:000016b4       ??_7StaticDialog@@6B@      100336b4     HEXDialog.obj
 0002:000016f0       ??_C@_19LAMBBDLP@?$AAD?$AAu?$AAm?$AAp?$AA?$AA@ 100336f0     HEXDialog.obj
 0002:000016fc       ??_C@_15LHNHECKK@?$AA?$CF?$AAx?$AA?$AA@ 100336fc     HEXDialog.obj
 0002:00001704       ??_C@_15BHOFONJE@?$AA?$CF?$AAX?$AA?$AA@ 10033704     HEXDialog.obj
 0002:0000170c       ??_C@_17FIMLMPPN@?$AAA?$AAd?$AAd?$AA?$AA@ 1003370c     HEXDialog.obj
 0002:00001714       ??_C@_1BA@LDPMAPOD@?$AAA?$AAd?$AAd?$AAr?$AAe?$AAs?$AAs?$AA?$AA@ 10033714     HEXDialog.obj
 0002:00001724       ??_C@_1DA@EEKEDJNL@?$AAC?$AAo?$AAu?$AAl?$AAd?$AAn?$AA?8?$AAt?$AA?5?$AAc?$AAr?$AAe?$AAa?$AAt?$AAe?$AA?5?$AAm?$AAe?$AAm?$AAo@ 10033724     HEXDialog.obj
 0002:00001754       ??_C@_1BC@PKEHKAEB@?$AAE?$AAx?$AAp?$AAl?$AAo?$AAr?$AAe?$AAr?$AA?$AA@ 10033754     HEXDialog.obj
 0002:00001768       ??_C@_1II@GPNDDCNC@?$AAI?$AAn?$AA?5?$AAL?$AAi?$AAt?$AAt?$AAl?$AAe?$AA?9?$AAE?$AAn?$AAd?$AAi?$AAa?$AAn?$AA?9?$AAM?$AAo?$AAd@ 10033768     HEXDialog.obj
 0002:000017f0       ??_C@_1CA@BINHCLAB@?$AAM?$AAs?$AAg?$AAB?$AAo?$AAx?$AA?5?$AAD?$AAe?$AAl?$AAE?$AAr?$AAr?$AAo?$AAr?$AA?$AA@ 100337f0     HEXDialog.obj
 0002:00001810       ??_C@_11LOCGONAA@?$AA?$AA@ 10033810     Hex.obj
 0002:00001810       ??_C@_01LOCGONAA@?$AA?$AA@ 10033810     HEXDialog.obj
 0002:00001818       ??_C@_1EO@BGHLNEHC@?$AAC?$AAl?$AAi?$AAp?$AAb?$AAo?$AAa?$AAr?$AAd?$AA?5?$AAi?$AAn?$AAf?$AAo?$AA?5?$AAh?$AAa?$AAs?$AA?5?$AAn@ 10033818     HEXDialog.obj
 0002:00001868       ??_C@_1CC@PGPMBFHP@?$AAM?$AAs?$AAg?$AAB?$AAo?$AAx?$AA?5?$AAS?$AAa?$AAm?$AAe?$AAW?$AAi?$AAd?$AAt?$AAh?$AA?$AA@ 10033868     HEXDialog.obj
 0002:0000188c       ??_C@_1O@DGEEABED@?$AA?$CF?$AAs?$AA?5?$AA?$CF?$AAd?$AA?6?$AA?$AA@ 1003388c     HEXDialog.obj
 0002:0000189c       ??_C@_0P@LMCMIOBJ@?$FO?$FL0?99a?9fA?9F?$FN?$CL?5?$AA@ 1003389c     HEXDialog.obj
 0002:000018ac       ??_C@_1CO@GELOCKGC@?$AAC?$AAo?$AAu?$AAl?$AAd?$AA?5?$AAn?$AAo?$AAt?$AA?5?$AAc?$AAh?$AAa?$AAn?$AAg?$AAe?$AA?5?$AAf?$AAo?$AAn@ 100338ac     HEXDialog.obj
 0002:000018dc       ??_C@_05DHOKIHEH@?$CF016x?$AA@ 100338dc     HEXDialog.obj
 0002:000018e4       ??_C@_05DFKMDJBO@?$CF015x?$AA@ 100338e4     HEXDialog.obj
 0002:000018ec       ??_C@_05DEGOFDCJ@?$CF014x?$AA@ 100338ec     HEXDialog.obj
 0002:000018f4       ??_C@_05DBCBEFKM@?$CF013x?$AA@ 100338f4     HEXDialog.obj
 0002:000018fc       ??_C@_05DAODCPJL@?$CF012x?$AA@ 100338fc     HEXDialog.obj
 0002:00001904       ??_C@_05DCKFJBMC@?$CF011x?$AA@ 10033904     HEXDialog.obj
 0002:0000190c       ??_C@_05DDGHPLPF@?$CF010x?$AA@ 1003390c     HEXDialog.obj
 0002:00001914       ??_C@_04MILHNNG@?$CF09x?$AA@ 10033914     HEXDialog.obj
 0002:0000191c       ??_C@_04NEJBHOB@?$CF08x?$AA@ 1003391c     HEXDialog.obj
 0002:00001924       ??_C@_04GBFFANM@?$CF07x?$AA@ 10033924     HEXDialog.obj
 0002:0000192c       ??_C@_04HNHDKOL@?$CF06x?$AA@ 1003392c     HEXDialog.obj
 0002:00001934       ??_C@_04FJBIELC@?$CF05x?$AA@ 10033934     HEXDialog.obj
 0002:0000193c       ??_C@_04EFDOOIF@?$CF04x?$AA@ 1003393c     HEXDialog.obj
 0002:00001944       ??_C@_05KCGOKDOF@?$CF016X?$AA@ 10033944     HEXDialog.obj
 0002:0000194c       ??_C@_05KACIBNLM@?$CF015X?$AA@ 1003394c     HEXDialog.obj
 0002:00001954       ??_C@_05KBOKHHIL@?$CF014X?$AA@ 10033954     HEXDialog.obj
 0002:0000195c       ??_C@_05KEKFGBAO@?$CF013X?$AA@ 1003395c     HEXDialog.obj
 0002:00001964       ??_C@_05KFGHALDJ@?$CF012X?$AA@ 10033964     HEXDialog.obj
 0002:0000196c       ??_C@_05KHCBLFGA@?$CF011X?$AA@ 1003396c     HEXDialog.obj
 0002:00001974       ??_C@_05KGODNPFH@?$CF010X?$AA@ 10033974     HEXDialog.obj
 0002:0000197c       ??_C@_04JJAPFJHE@?$CF09X?$AA@ 1003397c     HEXDialog.obj
 0002:00001984       ??_C@_04JDJBHEHO@?$CF07X?$AA@ 10033984     HEXDialog.obj
 0002:0000198c       ??_C@_04JCFDBOEJ@?$CF06X?$AA@ 1003398c     HEXDialog.obj
 0002:00001994       ??_C@_04JABFKABA@?$CF05X?$AA@ 10033994     HEXDialog.obj
 0002:0000199c       ??_C@_04JBNHMKCH@?$CF04X?$AA@ 1003399c     HEXDialog.obj
 0002:000019a8       ??_C@_1FI@KMFFIBGC@?$AAM?$AAa?$AAx?$AAi?$AAm?$AAu?$AAm?$AA?5?$AAo?$AAf?$AA?5?$AA1?$AA2?$AA8?$AA?5?$AAb?$AAy?$AAt?$AAe?$AAs@ 100339a8     HEXDialog.obj
 0002:00001a00       ??_C@_1CC@BJCHAMPA@?$AAM?$AAs?$AAg?$AAB?$AAo?$AAx?$AA?5?$AAM?$AAa?$AAx?$AAC?$AAo?$AAl?$AAC?$AAn?$AAt?$AA?$AA@ 10033a00     HEXDialog.obj
 0002:00001a28       ??_C@_1EO@FMCBPENO@?$AAO?$AAn?$AAl?$AAy?$AA?5?$AAv?$AAa?$AAl?$AAu?$AAe?$AAs?$AA?5?$AAb?$AAe?$AAt?$AAw?$AAe?$AAe?$AAn?$AA?5@ 10033a28     HEXDialog.obj
 0002:00001a78       ??_C@_1CC@JKAMCMKH@?$AAM?$AAs?$AAg?$AAB?$AAo?$AAx?$AA?5?$AAM?$AAa?$AAx?$AAA?$AAd?$AAd?$AAC?$AAn?$AAt?$AA?$AA@ 10033a78     HEXDialog.obj
 0002:00001a9c       ??_C@_1BK@OLNCHGMK@?$AAS?$AAe?$AAt?$AAt?$AAi?$AAn?$AAg?$AAs?$AAM?$AAe?$AAn?$AAu?$AA?$AA@ 10033a9c     HEXDialog.obj
 0002:00001ab8       ??_C@_1BG@NPPLCNCB@?$AAC?$AAo?$AAl?$AAu?$AAm?$AAn?$AAs?$AA?4?$AA?4?$AA?4?$AA?$AA@ 10033ab8     HEXDialog.obj
 0002:00001ad0       ??_C@_1CC@LIDMLBAM@?$AAA?$AAd?$AAd?$AAr?$AAe?$AAs?$AAs?$AA?5?$AAW?$AAi?$AAd?$AAt?$AAh?$AA?4?$AA?4?$AA?4?$AA?$AA@ 10033ad0     HEXDialog.obj
 0002:00001af4       ??_C@_1BA@DBHFMEO@?$AAV?$AAi?$AAe?$AAw?$AA?5?$AAi?$AAn?$AA?$AA@ 10033af4     HEXDialog.obj
 0002:00001b04       ??_C@_1O@JDLOHAN@?$AAD?$AAe?$AAl?$AAe?$AAt?$AAe?$AA?$AA@ 10033b04     HEXDialog.obj
 0002:00001b14       ??_C@_1M@DIOANCEH@?$AAP?$AAa?$AAs?$AAt?$AAe?$AA?$AA@ 10033b14     HEXDialog.obj
 0002:00001b20       ??_C@_19HNCGHLOK@?$AAC?$AAo?$AAp?$AAy?$AA?$AA@ 10033b20     HEXDialog.obj
 0002:00001b2c       ??_C@_17ICHNEOCB@?$AAC?$AAu?$AAt?$AA?$AA@ 10033b2c     HEXDialog.obj
 0002:00001b34       ??_C@_1CA@DCEEPPBE@?$AAt?$AAo?$AA?5?$AAL?$AAi?$AAt?$AAt?$AAl?$AAe?$AAE?$AAn?$AAd?$AAi?$AAa?$AAn?$AA?$AA@ 10033b34     HEXDialog.obj
 0002:00001b54       ??_C@_1BK@HJMNADG@?$AAt?$AAo?$AA?5?$AAB?$AAi?$AAg?$AAE?$AAn?$AAd?$AAi?$AAa?$AAn?$AA?$AA@ 10033b54     HEXDialog.obj
 0002:00001b70       ??_C@_1BE@OBBAHBKJ@?$AAt?$AAo?$AA?5?$AAB?$AAi?$AAn?$AAa?$AAr?$AAy?$AA?$AA@ 10033b70     HEXDialog.obj
 0002:00001b84       ??_C@_1O@MENGIFAN@?$AAt?$AAo?$AA?5?$AAH?$AAe?$AAx?$AA?$AA@ 10033b84     HEXDialog.obj
 0002:00001b94       ??_C@_1CE@FKCACFHH@?$AA?9?$AA?9?$AA?9?$AA?9?$AA?9?$AA?9?$AA?9?$AA?9?$AA?9?$AA?9?$AA?9?$AA?9?$AA?9?$AA?9?$AA?9?$AA?9?$AA?9?$AA?$AA@ 10033b94     HEXDialog.obj
 0002:00001bb8       ??_C@_1O@HAMCKAOI@?$AA6?$AA4?$AA?9?$AAB?$AAi?$AAt?$AA?$AA@ 10033bb8     HEXDialog.obj
 0002:00001bc8       ??_C@_1O@BLFMGLGF@?$AA3?$AA2?$AA?9?$AAB?$AAi?$AAt?$AA?$AA@ 10033bc8     HEXDialog.obj
 0002:00001bd8       ??_C@_1O@PJDEJELH@?$AA1?$AA6?$AA?9?$AAB?$AAi?$AAt?$AA?$AA@ 10033bd8     HEXDialog.obj
 0002:00001be8       ??_C@_1M@IMLCFNMD@?$AA8?$AA?9?$AAB?$AAi?$AAt?$AA?$AA@ 10033be8     HEXDialog.obj
 0002:00001bf4       ??_7ColumnDlg@@6B@         10033bf4     HEXDialog.obj
 0002:00001c30       ??_C@_1FG@JEGDAGEF@?$AAC?$AAo?$AAm?$AAp?$AAa?$AAr?$AAe?$AA?5?$AAr?$AAe?$AAs?$AAu?$AAl?$AAt?$AAs?$AA?5?$AAw?$AAi?$AAl?$AAl@ 10033c30     HEXDialog.obj
 0002:00001c88       ??_C@_1CG@OMDBGM@?$AAH?$AAe?$AAx?$AA?9?$AAE?$AAd?$AAi?$AAt?$AAo?$AAr?$AA?5?$AAC?$AAo?$AAm?$AAp?$AAa?$AAr?$AAe?$AA?$AA@ 10033c88     HEXDialog.obj
 0002:00001cb0       ??_C@_1CE@CNPIHFCG@?$AAM?$AAs?$AAg?$AAB?$AAo?$AAx?$AA?5?$AAC?$AAo?$AAm?$AAp?$AAD?$AAe?$AAl?$AAe?$AAt?$AAe?$AA?$AA@ 10033cb0     HEXDialog.obj
 0002:00001cd4       ??_C@_1BM@MMNLFHNL@?$AAM?$AAo?$AAd?$AAe?$AA?5?$AAU?$AAn?$AAk?$AAn?$AAo?$AAw?$AAn?$AA?6?$AA?$AA@ 10033cd4     HEXDialog.obj
 0002:00001cf0       ??_C@_1BK@OFFEJMOK@?$AAL?$AAi?$AAt?$AAt?$AAl?$AAe?$AAE?$AAn?$AAd?$AAi?$AAa?$AAn?$AA?$AA@ 10033cf0     HEXDialog.obj
 0002:00001d0c       ??_C@_1BE@NPOMHCHI@?$AAB?$AAi?$AAg?$AAE?$AAn?$AAd?$AAi?$AAa?$AAn?$AA?$AA@ 10033d0c     HEXDialog.obj
 0002:00001d20       ??_C@_1O@LINKDEMH@?$AAB?$AAi?$AAn?$AAa?$AAr?$AAy?$AA?$AA@ 10033d20     HEXDialog.obj
 0002:00001d30       ??_C@_17JGBHOPFE@?$AAH?$AAe?$AAx?$AA?$AA@ 10033d30     HEXDialog.obj
 0002:00001d38       ??_C@_1EA@LDFCDCPI@?$AAL?$AAn?$AA?5?$AA?3?$AA?5?$AA?$CF?$AAd?$AA?5?$AA?5?$AA?5?$AA?5?$AAC?$AAo?$AAl?$AA?5?$AA?3?$AA?5?$AA?$CF?$AAd?$AA?5@ 10033d38     HEXDialog.obj
 0002:00001d78       ??_C@_1BK@GJOJNDKK@?$AAn?$AAb?$AA?5?$AAc?$AAh?$AAa?$AAr?$AA?5?$AA?3?$AA?5?$AA?$CF?$AAd?$AA?$AA@ 10033d78     HEXDialog.obj
 0002:00001d94       ??_C@_1BM@EMIMFFBJ@?$AAH?$AAe?$AAx?$AA?5?$AAE?$AAd?$AAi?$AAt?$AA?5?$AAV?$AAi?$AAe?$AAw?$AA?$AA@ 10033d94     HEXDialog.obj
 0002:00001dd0       ??_C@_19BNBKBBLP@?$AAH?$AAe?$AAl?$AAp?$AA?$AA@ 10033dd0     HelpDialog.obj
 0002:00001de0       ??_C@_1FK@BCMPJPKN@?$AAh?$AAt?$AAt?$AAp?$AA?3?$AA?1?$AA?1?$AAs?$AAo?$AAu?$AAr?$AAc?$AAe?$AAf?$AAo?$AAr?$AAg?$AAe?$AA?4?$AAn@ 10033de0     HelpDialog.obj
 0002:00001e3c       ??_C@_1DM@DBCHAGKE@?$AAm?$AAa?$AAi?$AAl?$AAt?$AAo?$AA?3?$AAj?$AAe?$AAn?$AAs?$AA?4?$AAp?$AAl?$AAu?$AAg?$AAi?$AAn?$AA?4?$AAn@ 10033e3c     HelpDialog.obj
 0002:00002808       ??_7FindReplaceDlg@@6B@    10034808     Hex.obj
 0002:00002844       ??_7OptionDlg@@6B@         10034844     Hex.obj
 0002:00002880       ??_7ColorCombo@@6B@        10034880     Hex.obj
 0002:000028b4       ??_7GotoDlg@@6B@           100348b4     Hex.obj
 0002:000028f0       ??_7PatternDlg@@6B@        100348f0     Hex.obj
 0002:0000292c       ??_7HelpDlg@@6B@           1003492c     Hex.obj
 0002:00002968       ??_7URLCtrl@@6B@           10034968     Hex.obj
 0002:00002998       ??_C@_1BC@NEGLNEMI@?$AA?$CG?$AAH?$AAe?$AAl?$AAp?$AA?4?$AA?4?$AA?4?$AA?$AA@ 10034998     Hex.obj
 0002:000029ac       ??_C@_1BI@HKNKEPCA@?$AA?$CG?$AAO?$AAp?$AAt?$AAi?$AAo?$AAn?$AAs?$AA?4?$AA?4?$AA?4?$AA?$AA@ 100349ac     Hex.obj
 0002:000029c4       ??_C@_1CI@NHHPHBFG@?$AA?$CG?$AAP?$AAa?$AAt?$AAt?$AAe?$AAr?$AAn?$AA?5?$AAR?$AAe?$AAp?$AAl?$AAa?$AAc?$AAe?$AA?4?$AA?4?$AA?4?$AA?$AA@ 100349c4     Hex.obj
 0002:000029ec       ??_C@_1CG@DCICPBOA@?$AA?$CG?$AAI?$AAn?$AAs?$AAe?$AAr?$AAt?$AA?5?$AAC?$AAo?$AAl?$AAu?$AAm?$AAn?$AAs?$AA?4?$AA?4?$AA?4?$AA?$AA@ 100349ec     Hex.obj
 0002:00002a14       ??_C@_1CM@DAFIJDAH@?$AAC?$AAl?$AAe?$AAa?$AAr?$AA?5?$AAC?$AAo?$AAm?$AAp?$AAa?$AAr?$AAe?$AA?5?$AA?$CG?$AAR?$AAe?$AAs?$AAu?$AAl@ 10034a14     Hex.obj
 0002:00002a40       ??_C@_1BK@JIHMKCBA@?$AA?$CG?$AAC?$AAo?$AAm?$AAp?$AAa?$AAr?$AAe?$AA?5?$AAH?$AAE?$AAX?$AA?$AA@ 10034a40     Hex.obj
 0002:00002a5c       ??_C@_1BK@KCKFGKHL@?$AAV?$AAi?$AAe?$AAw?$AA?5?$AAi?$AAn?$AA?5?$AA?$CG?$AAH?$AAE?$AAX?$AA?$AA@ 10034a5c     Hex.obj
 0002:00002a78       ??_C@_1BI@GNONBDFP@?$AAC?$AAo?$AAu?$AAr?$AAi?$AAe?$AAr?$AA?5?$AAN?$AAe?$AAw?$AA?$AA@ 10034a78     Hex.obj
 0002:00002a90       ??_C@_1BK@DEAHCNDF@?$AAT?$AAC?$AAN?$AA_?$AAD?$AAR?$AAO?$AAP?$AAP?$AAE?$AAD?$AA?6?$AA?$AA@ 10034a90     Hex.obj
 0002:00002aac       ??_C@_1CA@KNGANGIJ@?$AAT?$AAC?$AAN?$AA_?$AAS?$AAE?$AAL?$AAC?$AAH?$AAA?$AAN?$AAG?$AAE?$AAD?$AA?6?$AA?$AA@ 10034aac     Hex.obj
 0002:00002acc       ??_C@_1CE@PMDNDKKI@?$AAS?$AAA?$AAV?$AAE?$AAP?$AAO?$AAI?$AAN?$AAT?$AAR?$AAE?$AAA?$AAC?$AAH?$AAE?$AAD?$AA?6?$AA?$AA@ 10034acc     Hex.obj
 0002:00002af0       ??_C@_1BA@DOFHKEOI@?$AAD?$AAO?$AAO?$AAP?$AAE?$AAN?$AA?6?$AA?$AA@ 10034af0     Hex.obj
 0002:00002b00       ??_C@_1CC@KNCFMNH@?$AAT?$AAO?$AA_?$AAA?$AAN?$AAO?$AAT?$AAH?$AAE?$AAR?$AA_?$AAV?$AAI?$AAE?$AAW?$AA?6?$AA?$AA@ 10034b00     Hex.obj
 0002:00002b24       ??_C@_1CG@LELBHALL@?$AAI?$AAD?$AAC?$AA_?$AAP?$AAR?$AAE?$AAV?$AA?1?$AAN?$AAE?$AAX?$AAT?$AA_?$AAD?$AAO?$AAC?$AA?6?$AA?$AA@ 10034b24     Hex.obj
 0002:00002b4c       ??_C@_1BO@KCEAOO@?$AAS?$AAC?$AAE?$AAN?$AA_?$AAS?$AAE?$AAT?$AAF?$AAO?$AAC?$AAU?$AAS?$AA?6?$AA?$AA@ 10034b4c     Hex.obj
 0002:00002b6c       ??_C@_1BM@FCIOPMKP@?$AAS?$AAy?$AAs?$AAt?$AAe?$AAm?$AAU?$AAp?$AAd?$AAa?$AAt?$AAe?$AA?6?$AA?$AA@ 10034b6c     Hex.obj
 0002:00002b88       ??_C@_13HOIJIPNN@?$AA?5?$AA?$AA@ 10034b88     Hex.obj
 0002:00002b8c       ??_C@_01CLKCMJKC@?5?$AA@   10034b8c     Hex.obj
 0002:00002b90       ??_C@_1BK@PHGBMABF@?$AAF?$AAi?$AAl?$AAe?$AAs?$AA?5?$AAM?$AAa?$AAt?$AAc?$AAh?$AA?4?$AA?$AA@ 10034b90     Hex.obj
 0002:00002bac       ??_C@_1CC@HKJGLILD@?$AAM?$AAs?$AAg?$AAB?$AAo?$AAx?$AA?5?$AAC?$AAo?$AAm?$AAp?$AAM?$AAa?$AAt?$AAc?$AAh?$AA?$AA@ 10034bac     Hex.obj
 0002:00002bd0       ??_C@_19MMNALPKK@?$AA?4?$AAc?$AAm?$AAp?$AA?$AA@ 10034bd0     Hex.obj
 0002:00002bdc       ??_C@_13ENNFDPBH@?$AA_?$AA?$AA@ 10034bdc     Hex.obj
 0002:00002be0       ??_7CompareDlg@@6B@        10034be0     Hex.obj
 0002:00002c1c       ?npos@?$basic_string@DU?$char_traits@D@std@@V?$allocator@D@2@@std@@2IB 10034c1c     CompareDialog.obj
 0002:00002c1c       ?npos@?$basic_string@GU?$char_traits@G@std@@V?$allocator@G@2@@std@@2IB 10034c1c     Hex.obj
 0002:00002cc0       ??_7MultiTypeCombo@@6B@    10034cc0     MultiTypeCombo.obj
 0002:00002cf4       ??_C@_1CC@ONBFLBJM@?$AAD?$AAe?$AAc?$AAo?$AAd?$AAe?$AA?5?$AAE?$AAr?$AAr?$AAo?$AAr?$AA?$CB?$AA?$CB?$AA?$CB?$AA?6?$AA?$AA@ 10034cf4     MultiTypeCombo.obj
 0002:00002d18       ??_C@_1GE@HBHMFKCL@?$AAT?$AAh?$AAe?$AAr?$AAe?$AA?5?$AAa?$AAr?$AAe?$AA?5?$AAo?$AAd?$AAd?$AA?5?$AAd?$AAi?$AAg?$AAi?$AAt?$AAs@ 10034d18     MultiTypeCombo.obj
 0002:00002d7c       ??_C@_1CC@FDCKGFMA@?$AAM?$AAs?$AAg?$AAB?$AAo?$AAx?$AA?5?$AAO?$AAd?$AAd?$AAD?$AAi?$AAg?$AAi?$AAt?$AAs?$AA?$AA@ 10034d7c     MultiTypeCombo.obj
 0002:00002da0       ??_C@_19FALJALJI@?$AAF?$AAo?$AAn?$AAt?$AA?$AA@ 10034da0     OptionDialog.obj
 0002:00002dac       ??_C@_1O@LECKFCDK@?$AAC?$AAo?$AAl?$AAo?$AAr?$AAs?$AA?$AA@ 10034dac     OptionDialog.obj
 0002:00002dbc       ??_C@_1BA@FIJHCCCE@?$AAS?$AAt?$AAa?$AAr?$AAt?$AAu?$AAp?$AA?$AA@ 10034dbc     OptionDialog.obj
 0002:00002dcc       ??_C@_1BK@ODDPEEMH@?$AAS?$AAt?$AAa?$AAr?$AAt?$AA?5?$AAL?$AAa?$AAy?$AAo?$AAu?$AAt?$AA?$AA@ 10034dcc     OptionDialog.obj
 0002:00002e30       ??_C@_1BA@BBLONAFB@?$AAO?$AAp?$AAt?$AAi?$AAo?$AAn?$AAs?$AA?$AA@ 10034e30     OptionDialog.obj
 0002:00002e40       ??_C@_15KNBIKKIN@?$AA?$CF?$AAd?$AA?$AA@ 10034e40     OptionDialog.obj
 0002:00002e48       ??_C@_1DE@FBEGACP@?$AAH?$AAe?$AAx?$AA?9?$AAE?$AAd?$AAi?$AAt?$AAo?$AAr?$AA?3?$AA?5?$AAA?$AAd?$AAd?$AAr?$AAe?$AAs?$AAs?$AA?5@ 10034e48     OptionDialog.obj
 0002:00002e7c       ??_C@_1DC@FBCLHAGC@?$AAH?$AAe?$AAx?$AA?9?$AAE?$AAd?$AAi?$AAt?$AAo?$AAr?$AA?3?$AA?5?$AAC?$AAo?$AAl?$AAu?$AAm?$AAn?$AA?5?$AAC@ 10034e7c     OptionDialog.obj
 0002:00002eb0       ??_C@_0BM@NMJKDPPO@invalid?5vector?$DMT?$DO?5subscript?$AA@ 10034eb0     OptionDialog.obj
 0002:00002f70       ??_C@_1CA@GOBLLELL@?$AAP?$AAa?$AAt?$AAt?$AAe?$AAr?$AAn?$AA?5?$AAR?$AAe?$AAp?$AAl?$AAa?$AAc?$AAe?$AA?$AA@ 10034f70     PatternDialog.obj
 0002:00002f90       ??_C@_1BO@GKJOKOMN@?$AAI?$AAn?$AAs?$AAe?$AAr?$AAt?$AA?5?$AAC?$AAo?$AAl?$AAu?$AAm?$AAn?$AAs?$AA?$AA@ 10034f90     PatternDialog.obj
 0002:00002fb0       ??_C@_1BA@BHDJAPNN@?$AAP?$AAa?$AAt?$AAt?$AAe?$AAr?$AAn?$AA?$AA@ 10034fb0     PatternDialog.obj
 0002:00002fc0       ??_C@_1GA@HHIFLFGO@?$AAO?$AAn?$AAl?$AAy?$AA?5?$AAc?$AAo?$AAl?$AAu?$AAm?$AAn?$AA?5?$AAp?$AAo?$AAs?$AAi?$AAt?$AAi?$AAo?$AAn@ 10034fc0     PatternDialog.obj
 0002:00003020       ??_C@_1BI@CPFNBBGA@?$AAP?$AAo?$AAs?$AA?5?$AAB?$AAe?$AAt?$AAw?$AAe?$AAe?$AAn?$AA?$AA@ 10035020     PatternDialog.obj
 0002:00003038       ??_C@_1CI@JGICEJLJ@?$AAP?$AAa?$AAt?$AAt?$AAe?$AAr?$AAn?$AA?5?$AAi?$AAs?$AA?5?$AAn?$AAo?$AAt?$AA?5?$AAs?$AAe?$AAt?$AA?$CB?$AA?$AA@ 10035038     PatternDialog.obj
 0002:00003060       ??_C@_1CC@HNGNACBP@?$AAM?$AAs?$AAg?$AAB?$AAo?$AAx?$AA?5?$AAP?$AAa?$AAt?$AAN?$AAo?$AAt?$AAS?$AAe?$AAt?$AA?$AA@ 10035060     PatternDialog.obj
 0002:000030a4       ??_C@_19BDAJEHDN@?$AAo?$AAp?$AAe?$AAn?$AA?$AA@ 100350a4     URLCtrl.obj
 0002:000030b0       ?k_Boms@Utf8_16@@2QAY02$$CBEA 100350b0     Utf8_16.obj
 0002:000030c0       ??_C@_1BK@NCOAHPFC@?$AAS?$AAt?$AAa?$AAt?$AAi?$AAc?$AAD?$AAi?$AAa?$AAl?$AAo?$AAg?$AA?$AA@ 100350c0     StaticDialog1.obj
 0002:000030e0       ??_7logic_error@std@@6B@   100350e0     libcpmt:string.obj
 0002:000030ec       ??_7length_error@std@@6B@  100350ec     libcpmt:string.obj
 0002:000030f8       ??_7out_of_range@std@@6B@  100350f8     libcpmt:string.obj
 0002:00003100       ??_C@_0BI@CFPLBAOH@invalid?5string?5position?$AA@ 10035100     libcpmt:string.obj
 0002:00003118       ??_C@_0BA@JFNIOLAK@string?5too?5long?$AA@ 10035118     libcpmt:string.obj
 0002:0000312c       ??_7bad_alloc@std@@6B@     1003512c     libcpmt:nomemory.obj
 0002:00003134       ??_C@_0P@GHFPNOJB@bad?5allocation?$AA@ 10035134     libcpmt:nomemory.obj
 0002:00003148       ??_7type_info@@6B@         10035148     LIBCMT:typinfo.obj
 0002:00003180       ??_7exception@@6B@         10035180     LIBCMT:stdexcpt.obj
 0002:00003188       ??_C@_0BC@EOODALEL@Unknown?5exception?$AA@ 10035188     LIBCMT:stdexcpt.obj
 0002:00003280       ??_C@_0CF@GOGNBNAK@Microsoft?5Visual?5C?$CL?$CL?5Runtime?5Lib@ 10035280     LIBCMT:secfail.obj
 0002:000032a8       ??_C@_09KLGCKDOD@Program?3?5?$AA@ 100352a8     LIBCMT:secfail.obj
 0002:000032b4       ??_C@_02PHMGELLB@?6?6?$AA@ 100352b4     LIBCMT:secfail.obj
 0002:000032b8       ??_C@_03KHICJKCI@?4?4?4?$AA@ 100352b8     LIBCMT:secfail.obj
 0002:000032bc       ??_C@_0BH@DNAGHKFM@?$DMprogram?5name?5unknown?$DO?$AA@ 100352bc     LIBCMT:secfail.obj
 0002:000032d8       ??_C@_0KA@JEHFIFGP@A?5buffer?5overrun?5has?5been?5detect@ 100352d8     LIBCMT:secfail.obj
 0002:00003378       ??_C@_0BJ@MDEKIEOJ@Buffer?5overrun?5detected?$CB?$AA@ 10035378     LIBCMT:secfail.obj
 0002:00003398       ??_C@_0LB@BPLHHLFD@A?5security?5error?5of?5unknown?5caus@ 10035398     LIBCMT:secfail.obj
 0002:0000344c       ??_C@_0CD@GMKACBEK@Unknown?5security?5failure?5detecte@ 1003544c     LIBCMT:secfail.obj
 0002:00003610       ___lookuptable             10035610     LIBCMT:output.obj
 0002:0000366c       ??_C@_1O@CEDCILHN@?$AA?$CI?$AAn?$AAu?$AAl?$AAl?$AA?$CJ?$AA?$AA@ 1003566c     LIBCMT:output.obj
 0002:0000367c       ??_C@_06OJHGLDPL@?$CInull?$CJ?$AA@ 1003567c     LIBCMT:output.obj
 0002:00003694       ??_C@_0P@MIGLKIOC@CorExitProcess?$AA@ 10035694     LIBCMT:crt0dat.obj
 0002:000036a4       ??_C@_0M@MBOPBNBK@mscoree?4dll?$AA@ 100356a4     LIBCMT:crt0dat.obj
 0002:0000371c       ??_C@_0P@GGKDKEEG@runtime?5error?5?$AA@ 1003571c     LIBCMT:crt0msg.obj
 0002:0000372c       ??_C@_02PCIJFNDE@?$AN?6?$AA@ 1003572c     LIBCMT:crt0msg.obj
 0002:00003730       ??_C@_0O@MJNIPGOH@TLOSS?5error?$AN?6?$AA@ 10035730     LIBCMT:crt0msg.obj
 0002:00003740       ??_C@_0N@BONNPDHF@SING?5error?$AN?6?$AA@ 10035740     LIBCMT:crt0msg.obj
 0002:00003750       ??_C@_0P@MBDAJNE@DOMAIN?5error?$AN?6?$AA@ 10035750     LIBCMT:crt0msg.obj
 0002:00003760       ??_C@_0CF@KJDAIALP@R6028?$AN?6?9?5unable?5to?5initialize?5he@ 10035760     LIBCMT:crt0msg.obj
 0002:00003788       ??_C@_0DF@GAKBPDFP@R6027?$AN?6?9?5not?5enough?5space?5for?5lo@ 10035788     LIBCMT:crt0msg.obj
 0002:000037c0       ??_C@_0DF@IBLNNAIG@R6026?$AN?6?9?5not?5enough?5space?5for?5st@ 100357c0     LIBCMT:crt0msg.obj
 0002:000037f8       ??_C@_0CG@IOHKGFNJ@R6025?$AN?6?9?5pure?5virtual?5function?5c@ 100357f8     LIBCMT:crt0msg.obj
 0002:00003820       ??_C@_0DF@JIJJFJDC@R6024?$AN?6?9?5not?5enough?5space?5for?5_o@ 10035820     LIBCMT:crt0msg.obj
 0002:00003858       ??_C@_0CJ@EGEJHFME@R6019?$AN?6?9?5unable?5to?5open?5console?5@ 10035858     LIBCMT:crt0msg.obj
 0002:00003884       ??_C@_0CB@GNHNIELH@R6018?$AN?6?9?5unexpected?5heap?5error?$AN?6@ 10035884     LIBCMT:crt0msg.obj
 0002:000038a8       ??_C@_0CN@FOLDKNG@R6017?$AN?6?9?5unexpected?5multithread?5@ 100358a8     LIBCMT:crt0msg.obj
 0002:000038d8       ??_C@_0CM@FAHFJNHO@R6016?$AN?6?9?5not?5enough?5space?5for?5th@ 100358d8     LIBCMT:crt0msg.obj
 0002:00003908       ??_C@_0JG@LBKMGKLD@?$AN?6This?5application?5has?5requested@ 10035908     LIBCMT:crt0msg.obj
 0002:000039a0       ??_C@_0CM@FLCNIPKK@R6009?$AN?6?9?5not?5enough?5space?5for?5en@ 100359a0     LIBCMT:crt0msg.obj
 0002:000039cc       ??_C@_0CK@KMMJOAPP@R6008?$AN?6?9?5not?5enough?5space?5for?5ar@ 100359cc     LIBCMT:crt0msg.obj
 0002:000039f8       ??_C@_0CF@HOHMHDEK@R6002?$AN?6?9?5floating?5point?5not?5load@ 100359f8     LIBCMT:crt0msg.obj
 0002:00003a20       ??_C@_0BK@OFGJDLJJ@Runtime?5Error?$CB?6?6Program?3?5?$AA@ 10035a20     LIBCMT:crt0msg.obj
 0002:00003a4c       ??_C@_0CG@PKBDLMEO@InitializeCriticalSectionAndSpin@ 10035a4c     LIBCMT:initcrit.obj
 0002:00003a74       ??_C@_0N@MDJJJHMB@kernel32?4dll?$AA@ 10035a74     LIBCMT:initcrit.obj
 0002:00003a94       ??_C@_0BI@DFKBFLJE@GetProcessWindowStation?$AA@ 10035a94     LIBCMT:crtmbox.obj
 0002:00003aac       ??_C@_0BK@CIDNPOGP@GetUserObjectInformationA?$AA@ 10035aac     LIBCMT:crtmbox.obj
 0002:00003ac8       ??_C@_0BD@HHGDFDBJ@GetLastActivePopup?$AA@ 10035ac8     LIBCMT:crtmbox.obj
 0002:00003adc       ??_C@_0BA@HNOPNCHB@GetActiveWindow?$AA@ 10035adc     LIBCMT:crtmbox.obj
 0002:00003aec       ??_C@_0M@CHKKJDAI@MessageBoxA?$AA@ 10035aec     LIBCMT:crtmbox.obj
 0002:00003af8       ??_C@_0L@GMPLCCII@user32?4dll?$AA@ 10035af8     LIBCMT:crtmbox.obj
 0002:00003b04       ??_C@_13NOLLCAOD@?$AA?$AA?$AA?$AA@ 10035b04     LIBCMT:w_str.obj
 0002:00003b20       __ctype                    10035b20     LIBCMT:ctype.obj
 0002:00003d28       __wctype                   10035d28     LIBCMT:ctype.obj
 0002:00003f4c       ??_C@_08JCCMCCIL@HH?3mm?3ss?$AA@ 10035f4c     LIBCMT:strftime.obj
 0002:00003f58       ??_C@_0BE@CKGJFCPC@dddd?0?5MMMM?5dd?0?5yyyy?$AA@ 10035f58     LIBCMT:strftime.obj
 0002:00003f6c       ??_C@_08BPBNCDIB@MM?1dd?1yy?$AA@ 10035f6c     LIBCMT:strftime.obj
 0002:00003f78       ??_C@_02CJNFDJBF@PM?$AA@   10035f78     LIBCMT:strftime.obj
 0002:00003f7c       ??_C@_02DEDBPAFC@AM?$AA@   10035f7c     LIBCMT:strftime.obj
 0002:00003f80       ??_C@_08EDHMEBNP@December?$AA@ 10035f80     LIBCMT:strftime.obj
 0002:00003f8c       ??_C@_08HCHEGEOA@November?$AA@ 10035f8c     LIBCMT:strftime.obj
 0002:00003f98       ??_C@_07JJNFCEND@October?$AA@ 10035f98     LIBCMT:strftime.obj
 0002:00003fa0       ??_C@_09BHHEALKD@September?$AA@ 10035fa0     LIBCMT:strftime.obj
 0002:00003fac       ??_C@_06LBBHFDDG@August?$AA@ 10035fac     LIBCMT:strftime.obj
 0002:00003fb4       ??_C@_04MIEPOIFP@July?$AA@ 10035fb4     LIBCMT:strftime.obj
 0002:00003fbc       ??_C@_04CNLMGBGM@June?$AA@ 10035fbc     LIBCMT:strftime.obj
 0002:00003fc4       ??_C@_05DMJDNLEJ@April?$AA@ 10035fc4     LIBCMT:strftime.obj
 0002:00003fcc       ??_C@_05HPCKOFNC@March?$AA@ 10035fcc     LIBCMT:strftime.obj
 0002:00003fd4       ??_C@_08GNJGEPFN@February?$AA@ 10035fd4     LIBCMT:strftime.obj
 0002:00003fe0       ??_C@_07CGJPFGJA@January?$AA@ 10035fe0     LIBCMT:strftime.obj
 0002:00003fe8       ??_C@_03MKABNOCG@Dec?$AA@  10035fe8     LIBCMT:strftime.obj
 0002:00003fec       ??_C@_03JPJOFNIA@Nov?$AA@  10035fec     LIBCMT:strftime.obj
 0002:00003ff0       ??_C@_03BMAOKBAD@Oct?$AA@  10035ff0     LIBCMT:strftime.obj
 0002:00003ff4       ??_C@_03GGCAPAJC@Sep?$AA@  10035ff4     LIBCMT:strftime.obj
 0002:00003ff8       ??_C@_03IFJFEIGA@Aug?$AA@  10035ff8     LIBCMT:strftime.obj
 0002:00003ffc       ??_C@_03LBGABGKK@Jul?$AA@  10035ffc     LIBCMT:strftime.obj
 0002:00004000       ??_C@_03IDFGHECI@Jun?$AA@  10036000     LIBCMT:strftime.obj
 0002:00004004       ??_C@_03CNMDKL@May?$AA@    10036004     LIBCMT:strftime.obj
 0002:00004008       ??_C@_03LEOLGMJP@Apr?$AA@  10036008     LIBCMT:strftime.obj
 0002:0000400c       ??_C@_03ODNJBKGA@Mar?$AA@  1003600c     LIBCMT:strftime.obj
 0002:00004010       ??_C@_03HJBDCHOM@Feb?$AA@  10036010     LIBCMT:strftime.obj
 0002:00004014       ??_C@_03JIHJHPIE@Jan?$AA@  10036014     LIBCMT:strftime.obj
 0002:00004018       ??_C@_08INBOOONO@Saturday?$AA@ 10036018     LIBCMT:strftime.obj
 0002:00004024       ??_C@_06JECMNKMI@Friday?$AA@ 10036024     LIBCMT:strftime.obj
 0002:0000402c       ??_C@_08HACCIKIA@Thursday?$AA@ 1003602c     LIBCMT:strftime.obj
 0002:00004038       ??_C@_09DLIGFAKA@Wednesday?$AA@ 10036038     LIBCMT:strftime.obj
 0002:00004044       ??_C@_07BAAGCFCM@Tuesday?$AA@ 10036044     LIBCMT:strftime.obj
 0002:0000404c       ??_C@_06JLEDEDGH@Monday?$AA@ 1003604c     LIBCMT:strftime.obj
 0002:00004054       ??_C@_06OOPIFAJ@Sunday?$AA@ 10036054     LIBCMT:strftime.obj
 0002:0000405c       ??_C@_03FEFJNEK@Sat?$AA@   1003605c     LIBCMT:strftime.obj
 0002:00004060       ??_C@_03IDIOELNC@Fri?$AA@  10036060     LIBCMT:strftime.obj
 0002:00004064       ??_C@_03IOFIKPDN@Thu?$AA@  10036064     LIBCMT:strftime.obj
 0002:00004068       ??_C@_03MHOMLAJA@Wed?$AA@  10036068     LIBCMT:strftime.obj
 0002:0000406c       ??_C@_03NAGEINEP@Tue?$AA@  1003606c     LIBCMT:strftime.obj
 0002:00004070       ??_C@_03PDAGKDH@Mon?$AA@   10036070     LIBCMT:strftime.obj
 0002:00004074       ??_C@_03KOEHGMDN@Sun?$AA@  10036074     LIBCMT:strftime.obj
 0002:000040e4       ___dnames                  100360e4     LIBCMT:timeset.obj
 0002:000040fc       ___mnames                  100360fc     LIBCMT:timeset.obj
 0002:00004184       ??_R1A@?0A@A@exception@@8  10036184     libcpmt:string.obj
 0002:0000419c       ??_R1A@?0A@A@logic_error@std@@8 1003619c     libcpmt:string.obj
 0002:000041b4       ??_R2logic_error@std@@8    100361b4     libcpmt:string.obj
 0002:000041c0       ??_R3logic_error@std@@8    100361c0     libcpmt:string.obj
 0002:000041d0       ??_R4logic_error@std@@6B@  100361d0     libcpmt:string.obj
 0002:000041e4       ??_R1A@?0A@A@length_error@std@@8 100361e4     libcpmt:string.obj
 0002:000041fc       ??_R2length_error@std@@8   100361fc     libcpmt:string.obj
 0002:0000420c       ??_R3length_error@std@@8   1003620c     libcpmt:string.obj
 0002:0000421c       ??_R4length_error@std@@6B@ 1003621c     libcpmt:string.obj
 0002:00004230       ??_R1A@?0A@A@out_of_range@std@@8 10036230     libcpmt:string.obj
 0002:00004248       ??_R2out_of_range@std@@8   10036248     libcpmt:string.obj
 0002:00004258       ??_R3out_of_range@std@@8   10036258     libcpmt:string.obj
 0002:00004268       ??_R4out_of_range@std@@6B@ 10036268     libcpmt:string.obj
 0002:0000427c       ??_R1A@?0A@A@bad_alloc@std@@8 1003627c     libcpmt:nomemory.obj
 0002:00004294       ??_R2bad_alloc@std@@8      10036294     libcpmt:nomemory.obj
 0002:000042a0       ??_R3bad_alloc@std@@8      100362a0     libcpmt:nomemory.obj
 0002:000042b0       ??_R4bad_alloc@std@@6B@    100362b0     libcpmt:nomemory.obj
 0002:000042c4       ??_R1A@?0A@A@type_info@@8  100362c4     LIBCMT:typinfo.obj
 0002:000042dc       ??_R2type_info@@8          100362dc     LIBCMT:typinfo.obj
 0002:000042e4       ??_R3type_info@@8          100362e4     LIBCMT:typinfo.obj
 0002:000042f4       ??_R4type_info@@6B@        100362f4     LIBCMT:typinfo.obj
 0002:00004308       ??_R2exception@@8          10036308     LIBCMT:stdexcpt.obj
 0002:00004310       ??_R3exception@@8          10036310     LIBCMT:stdexcpt.obj
 0002:00004320       ??_R4exception@@6B@        10036320     LIBCMT:stdexcpt.obj
 0002:00004334       ___rtc_iaa                 10036334     LIBCMT:initsect.obj
 0002:00004338       ___rtc_izz                 10036338     LIBCMT:initsect.obj
 0002:0000433c       ___rtc_taa                 1003633c     LIBCMT:initsect.obj
 0002:00004340       ___rtc_tzz                 10036340     LIBCMT:initsect.obj
 0002:00004368       __CT??_R0H@84              10036368     ColorPopup.obj
 0002:00004384       __CTA1H                    10036384     ColorPopup.obj
 0002:0000438c       __TI1H                     1003638c     ColorPopup.obj
 0002:00004478       __CT??_R0?AVexception@@@8??0exception@@QAE@ABV0@@Z12 10036478     CompareDialog.obj
 0002:00004494       __CT??_R0?AVlogic_error@std@@@8??0logic_error@std@@QAE@ABV01@@Z40 10036494     CompareDialog.obj
 0002:000044b0       __CT??_R0?AVlength_error@std@@@8??0length_error@std@@QAE@ABV01@@Z40 100364b0     CompareDialog.obj
 0002:000044cc       __CTA3?AVlength_error@std@@ 100364cc     CompareDialog.obj
 0002:000044dc       __TI3?AVlength_error@std@@ 100364dc     CompareDialog.obj
 0002:0000511c       __CT??_R0?AVout_of_range@std@@@8??0out_of_range@std@@QAE@ABV01@@Z40 1003711c     OptionDialog.obj
 0002:00005138       __CTA3?AVout_of_range@std@@ 10037138     OptionDialog.obj
 0002:00005148       __TI3?AVout_of_range@std@@ 10037148     OptionDialog.obj
 0002:00005230       __CT??_R0?AVbad_alloc@std@@@8??0bad_alloc@std@@QAE@ABV01@@Z12 10037230     libcpmt:nomemory.obj
 0002:0000524c       __CTA2?AVbad_alloc@std@@   1003724c     libcpmt:nomemory.obj
 0002:00005258       __TI2?AVbad_alloc@std@@    10037258     libcpmt:nomemory.obj
 0002:00005268       __IMPORT_DESCRIPTOR_SHLWAPI 10037268     shlwapi:SHLWAPI.dll
 0002:0000527c       __IMPORT_DESCRIPTOR_KERNEL32 1003727c     kernel32:KERNEL32.dll
 0002:00005290       __IMPORT_DESCRIPTOR_USER32 10037290     user32:USER32.dll
 0002:000052a4       __IMPORT_DESCRIPTOR_GDI32  100372a4     gdi32:GDI32.dll
 0002:000052b8       __IMPORT_DESCRIPTOR_comdlg32 100372b8     comdlg32:comdlg32.dll
 0002:000052cc       __IMPORT_DESCRIPTOR_ADVAPI32 100372cc     advapi32:ADVAPI32.dll
 0002:000052e0       __IMPORT_DESCRIPTOR_SHELL32 100372e0     shell32:SHELL32.dll
 0002:000052f4       __NULL_IMPORT_DESCRIPTOR   100372f4     shlwapi:SHLWAPI.dll
 0003:00000000       ___xc_a                    10039000     LIBCMT:crt0init.obj
 0003:0000003c       ___xc_z                    1003903c     LIBCMT:crt0init.obj
 0003:00000040       ___xi_a                    10039040     LIBCMT:crt0init.obj
 0003:00000054       ___xi_z                    10039054     LIBCMT:crt0init.obj
 0003:00000058       ___xp_a                    10039058     LIBCMT:crt0init.obj
 0003:00000060       ___xp_z                    10039060     LIBCMT:crt0init.obj
 0003:00000064       ___xt_a                    10039064     LIBCMT:crt0init.obj
 0003:0000006c       ___xt_z                    1003906c     LIBCMT:crt0init.obj
 0003:00000070       ?colorItems@@3PAKA         10039070     ColorPopup.obj
 0003:00000130       ??_R0H@8                   10039130     ColorPopup.obj
 0003:00000180       ??_R0?AVexception@@@8      10039180     CompareDialog.obj
 0003:00000198       ??_R0?AVlogic_error@std@@@8 10039198     CompareDialog.obj
 0003:000001b8       ??_R0?AVlength_error@std@@@8 100391b8     CompareDialog.obj
 0003:000001d8       ?openDoc1@@3HA             100391d8     Hex.obj
 0003:000001dc       ?openDoc2@@3HA             100391dc     Hex.obj
 0003:00000260       ??_R0?AVout_of_range@std@@@8 10039260     OptionDialog.obj
 0003:00000380       ??_R0?AVbad_alloc@std@@@8  10039380     libcpmt:nomemory.obj
 0003:0000039c       __NLG_Destination          1003939c     LIBCMT:exsup.obj
 0003:000003ac       ??_R0?AVtype_info@@@8      100393ac     LIBCMT:typinfo.obj
 0003:000003c4       ?__pMyUnhandledExceptionFilter@@3PAXA 100393c4     LIBCMT:throw.obj
 0003:000003d0       ___security_cookie         100393d0     LIBCMT:seccook.obj
 0003:000003e0       __aexit_rtn                100393e0     LIBCMT:dllcrt0.obj
 0003:000003e8       ?__pInconsistency@@3P6AXXZA 100393e8     LIBCMT:hooks.obj
 0003:000003ec       ___tlsindex                100393ec     LIBCMT:tidtable.obj
 0003:00000518       ___initiallocinfo          10039518     LIBCMT:setlocal.obj
 0003:0000056c       ___ptlocinfo               1003956c     LIBCMT:setlocal.obj
 0003:000006a4       ___nullstring              100396a4     LIBCMT:output.obj
 0003:000006a8       ___wnullstring             100396a8     LIBCMT:output.obj
 0003:000006b0       __iob                      100396b0     LIBCMT:_file.obj
 0003:00000a98       ___badioinfo               10039a98     LIBCMT:ioinit.obj
 0003:00000abc       __amblksiz                 10039abc     LIBCMT:heapinit.obj
 0003:00000b50       __XcptActTab               10039b50     LIBCMT:winxfltr.obj
 0003:00000bc8       __First_FPE_Indx           10039bc8     LIBCMT:winxfltr.obj
 0003:00000bcc       __Num_FPE                  10039bcc     LIBCMT:winxfltr.obj
 0003:00000bd0       __XcptActTabSize           10039bd0     LIBCMT:winxfltr.obj
 0003:00000bd4       __XcptActTabCount          10039bd4     LIBCMT:winxfltr.obj
 0003:00000cd0       __pctype                   10039cd0     LIBCMT:ctype.obj
 0003:00000cd4       __pwctype                  10039cd4     LIBCMT:ctype.obj
 0003:00000ce0       __cfltcvt_tab              10039ce0     LIBCMT:cmiscdat.obj
 0003:00000cf8       ___mb_cur_max              10039cf8     LIBCMT:nlsdata1.obj
 0003:00000cfc       ___decimal_point           10039cfc     LIBCMT:nlsdata1.obj
 0003:00000d00       ___decimal_point_length    10039d00     LIBCMT:nlsdata1.obj
 0003:00000d04       ___lc_time_curr            10039d04     LIBCMT:strftime.obj
 0003:00000d08       ___lc_time_c               10039d08     LIBCMT:strftime.obj
 0003:00000dc0       ___lconv_static_decimal    10039dc0     LIBCMT:lconv.obj
 0003:00000dc4       ___lconv_c                 10039dc4     LIBCMT:lconv.obj
 0003:00000df4       ___lconv                   10039df4     LIBCMT:lconv.obj
 0003:00000e00       ___lc_clike                10039e00     LIBCMT:nlsdata2.obj
 0003:00000e10       __timezone                 10039e10     LIBCMT:timeset.obj
 0003:00000e14       __daylight                 10039e14     LIBCMT:timeset.obj
 0003:00000e18       __dstbias                  10039e18     LIBCMT:timeset.obj
 0003:00000ea0       __tzname                   10039ea0     LIBCMT:timeset.obj
 0003:00000ec0       __lpdays                   10039ec0     LIBCMT:days.obj
 0003:00000ef4       __days                     10039ef4     LIBCMT:days.obj
 0003:000010d0       ?currentPath@@3PAGA        1003a0d0     Hex.obj
 0003:000012d8       ?nppData@@3UNppData@@A     1003a2d8     Hex.obj
 0003:000012e4       ?g_TBHex@@3UtoolbarIcons@@A 1003a2e4     Hex.obj
 0003:000012ec       ?g_clipboard@@3UtClipboard@@A 1003a2ec     Hex.obj
 0003:00001300       ?cmparePath@@3PAGA         1003a300     Hex.obj
 0003:00001508       ?configPath@@3PAGA         1003a508     Hex.obj
 0003:00001710       ?g_hModule@@3PAXA          1003a710     Hex.obj
 0003:00001718       ?iniFilePath@@3PAGA        1003a718     Hex.obj
 0003:00001920       ?funcItem@@3PAUFuncItem@@A 1003a920     Hex.obj
 0003:00001e30       ?g_HSource@@3PAUHWND__@@A  1003ae30     Hex.obj
 0003:00001e38       ?hexMask@@3PAY02DA         1003ae38     Hex.obj
 0003:00002138       ?g_hFindRepDlg@@3PAUHWND__@@A 1003b138     Hex.obj
 0003:0000213c       ?wndProcNotepad@@3P6GJPAUHWND__@@IIJ@ZA 1003b13c     Hex.obj
 0003:00002140       ?currentSC@@3IA            1003b140     Hex.obj
 0003:00002144       ?pCurHexEdit@@3PAVHexEdit@@A 1003b144     Hex.obj
 0003:00002148       ?isNotepadCreated@@3HA     1003b148     Hex.obj
 0003:0000214c       ?isMenuHex@@3HA            1003b14c     Hex.obj
 0003:00002150       ?vMenuInfoEdit@@3V?$vector@UtMenu@@V?$allocator@UtMenu@@@std@@@std@@A 1003b150     Hex.obj
 0003:00002160       ?helpDlg@@3VHelpDlg@@A     1003b160     Hex.obj
 0003:000025f4       ?vMenuInfoSearch@@3V?$vector@UtMenu@@V?$allocator@UtMenu@@@std@@@std@@A 1003b5f4     Hex.obj
 0003:00002604       ?vMenuInfoView@@3V?$vector@UtMenu@@V?$allocator@UtMenu@@@std@@@std@@A 1003b604     Hex.obj
 0003:00002618       ?prop@@3UtProp@@A          1003b618     Hex.obj
 0003:00002bc8       ?propDlg@@3VOptionDlg@@A   1003bbc8     Hex.obj
 0003:00002ea0       ?findRepDlg@@3VFindReplaceDlg@@A 1003bea0     Hex.obj
 0003:00003710       ?patDlg@@3VPatternDlg@@A   1003c710     Hex.obj
 0003:00003bd8       ?hexEdit1@@3VHexEdit@@A    1003cbd8     Hex.obj
 0003:00003ce0       ?hexEdit2@@3VHexEdit@@A    1003cce0     Hex.obj
 0003:00003de4       ?vMenuInfoFile@@3V?$vector@UtMenu@@V?$allocator@UtMenu@@@std@@@std@@A 1003cde4     Hex.obj
 0003:00003df8       ?gotoDlg@@3VGotoDlg@@A     1003cdf8     Hex.obj
 0003:00003e48       ?_pSelf@WcharMbcsConvertor@@1PAV1@A 1003ce48     SysMsg1.obj
 0003:00003e60       __aenvptr                  1003ce60     LIBCMT:dllcrt0.obj
 0003:00003e64       __wenvptr                  1003ce64     LIBCMT:dllcrt0.obj
 0003:00003e68       ___error_mode              1003ce68     LIBCMT:dllcrt0.obj
 0003:00003e6c       ___app_type                1003ce6c     LIBCMT:dllcrt0.obj
 0003:00003e70       ?_pnhHeap@@3P6AHI@ZA       1003ce70     LIBCMT:handler.obj
 0003:00003fdc       __umaskval                 1003cfdc     LIBCMT:crt0dat.obj
 0003:00003fe0       __osplatform               1003cfe0     LIBCMT:crt0dat.obj
 0003:00003fe4       __osver                    1003cfe4     LIBCMT:crt0dat.obj
 0003:00003fe8       __winver                   1003cfe8     LIBCMT:crt0dat.obj
 0003:00003fec       __winmajor                 1003cfec     LIBCMT:crt0dat.obj
 0003:00003ff0       __winminor                 1003cff0     LIBCMT:crt0dat.obj
 0003:00003ff4       ___argc                    1003cff4     LIBCMT:crt0dat.obj
 0003:00003ff8       ___argv                    1003cff8     LIBCMT:crt0dat.obj
 0003:00003ffc       ___wargv                   1003cffc     LIBCMT:crt0dat.obj
 0003:00004000       __environ                  1003d000     LIBCMT:crt0dat.obj
 0003:00004004       ___initenv                 1003d004     LIBCMT:crt0dat.obj
 0003:00004008       __wenviron                 1003d008     LIBCMT:crt0dat.obj
 0003:0000400c       ___winitenv                1003d00c     LIBCMT:crt0dat.obj
 0003:00004010       __pgmptr                   1003d010     LIBCMT:crt0dat.obj
 0003:00004014       __wpgmptr                  1003d014     LIBCMT:crt0dat.obj
 0003:00004018       __exitflag                 1003d018     LIBCMT:crt0dat.obj
 0003:0000401c       __C_Termination_Done       1003d01c     LIBCMT:crt0dat.obj
 0003:00004020       __C_Exit_Done              1003d020     LIBCMT:crt0dat.obj
 0003:00004024       __cflush                   1003d024     LIBCMT:_file.obj
 0003:00004134       __adbgmsg                  1003d134     LIBCMT:crt0msg.obj
 0003:00004138       __newmode                  1003d138     LIBCMT:_newmode.obj
 0003:00004160       ___lconv_static_null       1003d160     LIBCMT:lconv.obj
 0003:00004164       ___lc_time_intl            1003d164     LIBCMT:inittime.obj
 0003:00004168       ___lconv_intl              1003d168     LIBCMT:initmon.obj
 0003:00004190       ___lc_handle               1003d190     LIBCMT:nlsdata2.obj
 0003:000041a8       ___lc_codepage             1003d1a8     LIBCMT:nlsdata2.obj
 0003:000041ac       ___lc_collate_cp           1003d1ac     LIBCMT:nlsdata2.obj
 0003:000041b0       ___lc_id                   1003d1b0     LIBCMT:nlsdata3.obj
 0003:000041d8       __commode                  1003d1d8     LIBCMT:ncommode.obj
 0003:000042b8       __fmode                    1003d2b8     LIBCMT:txtmode.obj
 0003:000042c8       ___ctype1_refcount         1003d2c8     <common>
 0003:000042cc       ___lconv_mon_refcount      1003d2cc     <common>
 0003:000042d0       ___lconv_num_refcount      1003d2d0     <common>
 0003:000042d4       ___mblcid                  1003d2d4     <common>
 0003:000042d8       ___ptmbcinfo               1003d2d8     <common>
 0003:000042dc       ___ismbcodepage            1003d2dc     <common>
 0003:000042e0       __mbctype                  1003d2e0     <common>
 0003:000043e4       ___mbcodepage              1003d3e4     <common>
 0003:000043f0       ___mbulinfo                1003d3f0     <common>
 0003:00004400       __mbcasemap                1003d400     <common>
 0003:00004500       ___sbh_pHeaderDefer        1003d500     <common>
 0003:00004504       ___sbh_cntHeaderList       1003d504     <common>
 0003:00004508       ___sbh_pHeaderList         1003d508     <common>
 0003:0000450c       ___sbh_threshold           1003d50c     <common>
 0003:00004510       ___sbh_pHeaderScan         1003d510     <common>
 0003:00004514       ___sbh_sizeHeaderList      1003d514     <common>
 0003:00004518       ___sbh_indGroupDefer       1003d518     <common>
 0003:0000451c       __crtheap                  1003d51c     <common>
 0003:00004520       ___active_heap             1003d520     <common>
 0003:00004524       __nhandle                  1003d524     <common>
 0003:00004540       ___pioinfo                 1003d540     <common>
 0003:00004640       ___piob                    1003d640     <common>
 0003:00004660       __bufin                    1003d660     <common>
 0003:00005660       __nstream                  1003e660     <common>
 0003:00005664       ___env_initialized         1003e664     <common>
 0003:00005668       ___onexitend               1003e668     <common>
 0003:0000566c       ___onexitbegin             1003e66c     <common>
 0003:00005670       ___mbctype_initialized     1003e670     <common>
 0003:00005674       __FPinit                   1003e674     <common>
 0003:00005678       __acmdln                   1003e678     <common>
 0003:0000567c       __pRawDllMain              1003e67c     <common>

 entry point at        0001:0002878c

 Static symbols

 0001:0002ff60       _$E1                       10030f60 f   SysMsg1.obj
 0001:00024670       ?NLGetText@@YAIPAUHINSTANCE__@@PAUHWND__@@PBGPAGI@Z 10025670 f   PatternDialog.obj
 0001:00024a70       ?NLChangeDialog@@YAXPAUHINSTANCE__@@PAUHWND__@@1PBG@Z 10025a70 f   PatternDialog.obj
 0001:00025090       ?NLMessageBox@@YAHPAUHINSTANCE__@@PAUHWND__@@PBGI1@Z 10026090 f   PatternDialog.obj
 0001:00023180       ?NLChangeDialog@@YAXPAUHINSTANCE__@@PAUHWND__@@1PBG@Z 10024180 f   OptionDialog.obj
 0001:00023210       ?NLGetText@@YAIPAUHINSTANCE__@@PAUHWND__@@PBGPAGI@Z 10024210 f   OptionDialog.obj
 0001:000232f0       ?EnumFontFamExProc@@YGHPAUtagENUMLOGFONTEXW@@PAUtagNEWTEXTMETRICEXW@@KJ@Z 100242f0 f   OptionDialog.obj
 0001:00024330       ?NLMessageBox@@YAHPAUHINSTANCE__@@PAUHWND__@@PBGI1@Z 10025330 f   OptionDialog.obj
 0001:00021610       ?NLMessageBox@@YAHPAUHINSTANCE__@@PAUHWND__@@PBGI1@Z 10022610 f   MultiTypeCombo.obj
 0001:000216e0       ?NLGetText@@YAIPAUHINSTANCE__@@PAUHWND__@@PBGPAGI@Z 100226e0 f   MultiTypeCombo.obj
 0001:0002fde0       _$E2                       10030de0 f   Hex.obj
 0001:0002ffd0       _$E3                       10030fd0 f   Hex.obj
 0001:0002fe00       _$E5                       10030e00 f   Hex.obj
 0001:0002ffe0       _$E6                       10030fe0 f   Hex.obj
 0001:0002fe20       _$E8                       10030e20 f   Hex.obj
 0001:0002fff0       _$E9                       10030ff0 f   Hex.obj
 0001:0002fe40       _$E11                      10030e40 f   Hex.obj
 0001:00030000       _$E12                      10031000 f   Hex.obj
 0001:0002fe60       _$E14                      10030e60 f   Hex.obj
 0001:00030010       _$E15                      10031010 f   Hex.obj
 0001:0002fe80       _$E17                      10030e80 f   Hex.obj
 0001:00030020       _$E18                      10031020 f   Hex.obj
 0001:0002fea0       _$E20                      10030ea0 f   Hex.obj
 0001:00030030       _$E21                      10031030 f   Hex.obj
 0001:0002fec0       _$E23                      10030ec0 f   Hex.obj
 0001:00030040       _$E24                      10031040 f   Hex.obj
 0001:0002fee0       _$E26                      10030ee0 f   Hex.obj
 0001:00030050       _$E27                      10031050 f   Hex.obj
 0001:0002ff00       _$E29                      10030f00 f   Hex.obj
 0001:00030060       _$E30                      10031060 f   Hex.obj
 0001:0002ff20       _$E32                      10030f20 f   Hex.obj
 0001:00030070       _$E33                      10031070 f   Hex.obj
 0001:0002ff40       _$E35                      10030f40 f   Hex.obj
 0001:00030080       _$E36                      10031080 f   Hex.obj
 0001:000191b0       ?NLChangeNppMenu@@YAXPAUHINSTANCE__@@PAUHWND__@@PBGPAUFuncItem@@I@Z 1001a1b0 f   Hex.obj
 0001:0001cb30       ?NLMessageBox@@YAHPAUHINSTANCE__@@PAUHWND__@@PBGI1@Z 1001db30 f   Hex.obj
 0001:0001cc00       ?NLGetText@@YAIPAUHINSTANCE__@@PAUHWND__@@PBGPAGI@Z 1001dc00 f   Hex.obj
 0001:00018050       ?NLChangeDialog@@YAXPAUHINSTANCE__@@PAUHWND__@@1PBG@Z 10019050 f   HelpDialog.obj
 0001:0000a2e0       ?NLMessageBox@@YAHPAUHINSTANCE__@@PAUHWND__@@PBGI1@Z 1000b2e0 f   HEXDialog.obj
 0001:0000a3b0       ?NLGetText@@YAIPAUHINSTANCE__@@PAUHWND__@@PBGPAGI@Z 1000b3b0 f   HEXDialog.obj
 0001:0000d270       ?NLChangeMenu@@YAHPAUHINSTANCE__@@PAUHWND__@@PAUHMENU__@@PBGI@Z 1000e270 f   HEXDialog.obj
 0001:00005720       ?NLChangeDialog@@YAXPAUHINSTANCE__@@PAUHWND__@@1PBG@Z 10006720 f   GotoDialog.obj
 0001:000032f0       ?NLChangeDialog@@YAXPAUHINSTANCE__@@PAUHWND__@@1PBG@Z 100042f0 f   FindReplaceDialog.obj
 0001:00003910       ?NLGetText@@YAIPAUHINSTANCE__@@PAUHWND__@@PBGPAGI@Z 10004910 f   FindReplaceDialog.obj
 0001:00004390       ?NLMessageBox@@YAHPAUHINSTANCE__@@PAUHWND__@@PBGI1@Z 10005390 f   FindReplaceDialog.obj
 0001:00001670       ?NLChangeDialog@@YAXPAUHINSTANCE__@@PAUHWND__@@1PBG@Z 10002670 f   CompareDialog.obj
 0001:000010a0       ?NLChangeDialog@@YAXPAUHINSTANCE__@@PAUHWND__@@1PBG@Z 100020a0 f   ColumnDialog.obj
 0001:00000dc0       ?NLChangeDialog@@YAXPAUHINSTANCE__@@PAUHWND__@@1PBG@Z 10001dc0 f   ColorPopup.obj
 0001:0003008f       _$E2                       1003108f f   libcpmt:nomemory.obj
 0001:0002f610       _$$$00001                  10030610 f   LIBCMT:strchr.obj
 0001:00029e96       _write_char                1002ae96 f   LIBCMT:woutput.obj
 0001:00029ebb       _write_multi_char          1002aebb f   LIBCMT:woutput.obj
 0001:00029ee0       _write_string              1002aee0 f   LIBCMT:woutput.obj
 0001:0002a92b       _write_char                1002b92b f   LIBCMT:output.obj
 0001:0002a95e       _write_multi_char          1002b95e f   LIBCMT:output.obj
 0001:0002a982       _write_string              1002b982 f   LIBCMT:output.obj
 0001:00028530       _flsall                    10029530 f   LIBCMT:fflush.obj
 0001:0002bf73       _parse_cmdline             1002cf73 f   LIBCMT:stdargv.obj
 0001:0002b403       _doexit                    1002c403 f   LIBCMT:crt0dat.obj
 0001:0002eaa3       _siglookup                 1002faa3 f   LIBCMT:winsig.obj
 0001:0002a82e       ___updatetlocinfo_lk       1002b82e f   LIBCMT:setlocal.obj
 0001:000281b8       __onexit_lk                100291b8 f   LIBCMT:onexit.obj
 0001:0002d63e       ___crtInitCritSecNoSpinCount@8 1002e63e f   LIBCMT:initcrit.obj
 0001:00027410       _report_failure            10028410 f   LIBCMT:seccook.obj
 0001:0002d9e4       $$$00003                   1002e9e4 f   LIBCMT:exsup3.obj
 0001:00027238       $$$00001                   10028238 f   LIBCMT:exsup.obj
 0001:00027258       $$$00003                   10028258 f   LIBCMT:exsup.obj
 0001:00027258       __unwind_handler           10028258 f   LIBCMT:exsup.obj
 0001:0002727a       $$$00005                   1002827a f   LIBCMT:exsup.obj
 0001:000272e2       $$$00007                   100282e2 f   LIBCMT:exsup.obj
 0001:00027326       $$$00011                   10028326 f   LIBCMT:exsup.obj
 0001:0002d150       _CPtoLCID                  1002e150 f   LIBCMT:mbctype.obj
 0001:0002d17f       _setSBCS                   1002e17f f   LIBCMT:mbctype.obj
 0001:0002d1a8       _setSBUpLow                1002e1a8 f   LIBCMT:mbctype.obj
 0001:0002d33a       __setmbcp_lk               1002e33a f   LIBCMT:mbctype.obj
 0001:00026f92       ?CatchGuardHandler@@YA?AW4_EXCEPTION_DISPOSITION@@PAUEHExceptionRecord@@PAUCatchGuardRN@@PAX2@Z 10027f92 f   LIBCMT:trnsctrl.obj
 0001:00026fb6       ?TranslatorGuardHandler@@YA?AW4_EXCEPTION_DISPOSITION@@PAUEHExceptionRecord@@PAUTranslatorGuardRN@@PAX2@Z 10027fb6 f   LIBCMT:trnsctrl.obj
 0001:000289c0       ?TypeMatch@@YAHPBU_s_HandlerType@@PBU_s_CatchableType@@PBU_s_ThrowInfo@@@Z 100299c0 f   LIBCMT:frame.obj
 0001:00028a0f       ?FrameUnwindFilter@@YAHPAU_EXCEPTION_POINTERS@@@Z 10029a0f f   LIBCMT:frame.obj
 0001:00028b40       ?AdjustPointer@@YAPAXPAXABUPMD@@@Z 10029b40 f   LIBCMT:frame.obj
 0001:00028b5d       ?CallCatchBlock@@YAPAXPAUEHExceptionRecord@@PAUEHRegistrationNode@@PAU_CONTEXT@@PBU_s_FuncInfo@@PAXHK@Z 10029b5d f   LIBCMT:frame.obj
 0001:00028d04       ?BuildCatchObject@@YAXPAUEHExceptionRecord@@PAXPBU_s_HandlerType@@PBU_s_CatchableType@@@Z 10029d04 f   LIBCMT:frame.obj
 0001:00028e80       ?CatchIt@@YAXPAUEHExceptionRecord@@PAUEHRegistrationNode@@PAU_CONTEXT@@PAXPBU_s_FuncInfo@@PBU_s_HandlerType@@PBU_s_CatchableType@@PBU_s_TryBlockMapEntry@@H1E@Z 10029e80 f   LIBCMT:frame.obj
 0001:00028ee7       ?FindHandlerForForeignException@@YAXPAUEHExceptionRecord@@PAUEHRegistrationNode@@PAU_CONTEXT@@PAXPBU_s_FuncInfo@@HH1@Z 10029ee7 f   LIBCMT:frame.obj
 0001:00028fa7       ?FindHandler@@YAXPAUEHExceptionRecord@@PAUEHRegistrationNode@@PAU_CONTEXT@@PAXPBU_s_FuncInfo@@EH1@Z 10029fa7 f   LIBCMT:frame.obj
 0001:00029d15       _xtoa                      1002ad15 f   LIBCMT:xtoa.obj
